
./build/victim:     file format elf64-x86-64


Disassembly of section .init:

0000000000001000 <_init>:
    1000:	48 83 ec 08          	sub    $0x8,%rsp
    1004:	48 8b 05 c5 2f 00 00 	mov    0x2fc5(%rip),%rax        # 3fd0 <__gmon_start__@Base>
    100b:	48 85 c0             	test   %rax,%rax
    100e:	74 02                	je     1012 <_init+0x12>
    1010:	ff d0                	call   *%rax
    1012:	48 83 c4 08          	add    $0x8,%rsp
    1016:	c3                   	ret

Disassembly of section .plt:

0000000000001020 <.plt>:
    1020:	ff 35 ca 2f 00 00    	push   0x2fca(%rip)        # 3ff0 <_GLOBAL_OFFSET_TABLE_+0x8>
    1026:	ff 25 cc 2f 00 00    	jmp    *0x2fcc(%rip)        # 3ff8 <_GLOBAL_OFFSET_TABLE_+0x10>
    102c:	0f 1f 40 00          	nopl   0x0(%rax)

Disassembly of section .plt.got:

0000000000001030 <__cxa_finalize@plt>:
    1030:	ff 25 aa 2f 00 00    	jmp    *0x2faa(%rip)        # 3fe0 <__cxa_finalize@GLIBC_2.2.5>
    1036:	66 90                	xchg   %ax,%ax

Disassembly of section .text:

0000000000001040 <_start>:
    1040:	31 ed                	xor    %ebp,%ebp
    1042:	49 89 d1             	mov    %rdx,%r9
    1045:	5e                   	pop    %rsi
    1046:	48 89 e2             	mov    %rsp,%rdx
    1049:	48 83 e4 f0          	and    $0xfffffffffffffff0,%rsp
    104d:	50                   	push   %rax
    104e:	54                   	push   %rsp
    104f:	45 31 c0             	xor    %r8d,%r8d
    1052:	31 c9                	xor    %ecx,%ecx
    1054:	48 8d 3d 16 02 00 00 	lea    0x216(%rip),%rdi        # 1271 <main>
    105b:	ff 15 5f 2f 00 00    	call   *0x2f5f(%rip)        # 3fc0 <__libc_start_main@GLIBC_2.34>
    1061:	f4                   	hlt
    1062:	66 2e 0f 1f 84 00 00 	cs nopw 0x0(%rax,%rax,1)
    1069:	00 00 00 
    106c:	0f 1f 40 00          	nopl   0x0(%rax)

0000000000001070 <deregister_tm_clones>:
    1070:	48 8d 3d 99 2f 00 00 	lea    0x2f99(%rip),%rdi        # 4010 <__TMC_END__>
    1077:	48 8d 05 92 2f 00 00 	lea    0x2f92(%rip),%rax        # 4010 <__TMC_END__>
    107e:	48 39 f8             	cmp    %rdi,%rax
    1081:	74 15                	je     1098 <deregister_tm_clones+0x28>
    1083:	48 8b 05 3e 2f 00 00 	mov    0x2f3e(%rip),%rax        # 3fc8 <_ITM_deregisterTMCloneTable@Base>
    108a:	48 85 c0             	test   %rax,%rax
    108d:	74 09                	je     1098 <deregister_tm_clones+0x28>
    108f:	ff e0                	jmp    *%rax
    1091:	0f 1f 80 00 00 00 00 	nopl   0x0(%rax)
    1098:	c3                   	ret
    1099:	0f 1f 80 00 00 00 00 	nopl   0x0(%rax)

00000000000010a0 <register_tm_clones>:
    10a0:	48 8d 3d 69 2f 00 00 	lea    0x2f69(%rip),%rdi        # 4010 <__TMC_END__>
    10a7:	48 8d 35 62 2f 00 00 	lea    0x2f62(%rip),%rsi        # 4010 <__TMC_END__>
    10ae:	48 29 fe             	sub    %rdi,%rsi
    10b1:	48 89 f0             	mov    %rsi,%rax
    10b4:	48 c1 ee 3f          	shr    $0x3f,%rsi
    10b8:	48 c1 f8 03          	sar    $0x3,%rax
    10bc:	48 01 c6             	add    %rax,%rsi
    10bf:	48 d1 fe             	sar    %rsi
    10c2:	74 14                	je     10d8 <register_tm_clones+0x38>
    10c4:	48 8b 05 0d 2f 00 00 	mov    0x2f0d(%rip),%rax        # 3fd8 <_ITM_registerTMCloneTable@Base>
    10cb:	48 85 c0             	test   %rax,%rax
    10ce:	74 08                	je     10d8 <register_tm_clones+0x38>
    10d0:	ff e0                	jmp    *%rax
    10d2:	66 0f 1f 44 00 00    	nopw   0x0(%rax,%rax,1)
    10d8:	c3                   	ret
    10d9:	0f 1f 80 00 00 00 00 	nopl   0x0(%rax)

00000000000010e0 <__do_global_dtors_aux>:
    10e0:	f3 0f 1e fa          	endbr64
    10e4:	80 3d 25 2f 00 00 00 	cmpb   $0x0,0x2f25(%rip)        # 4010 <__TMC_END__>
    10eb:	75 2b                	jne    1118 <__do_global_dtors_aux+0x38>
    10ed:	55                   	push   %rbp
    10ee:	48 83 3d ea 2e 00 00 	cmpq   $0x0,0x2eea(%rip)        # 3fe0 <__cxa_finalize@GLIBC_2.2.5>
    10f5:	00 
    10f6:	48 89 e5             	mov    %rsp,%rbp
    10f9:	74 0c                	je     1107 <__do_global_dtors_aux+0x27>
    10fb:	48 8b 3d 06 2f 00 00 	mov    0x2f06(%rip),%rdi        # 4008 <__dso_handle>
    1102:	e8 29 ff ff ff       	call   1030 <__cxa_finalize@plt>
    1107:	e8 64 ff ff ff       	call   1070 <deregister_tm_clones>
    110c:	c6 05 fd 2e 00 00 01 	movb   $0x1,0x2efd(%rip)        # 4010 <__TMC_END__>
    1113:	5d                   	pop    %rbp
    1114:	c3                   	ret
    1115:	0f 1f 00             	nopl   (%rax)
    1118:	c3                   	ret
    1119:	0f 1f 80 00 00 00 00 	nopl   0x0(%rax)

0000000000001120 <frame_dummy>:
    1120:	f3 0f 1e fa          	endbr64
    1124:	e9 77 ff ff ff       	jmp    10a0 <register_tm_clones>

0000000000001129 <victim_loop>:
    1129:	55                   	push   %rbp
    112a:	48 89 e5             	mov    %rsp,%rbp
    112d:	48 8d 05 d0 0e 00 00 	lea    0xed0(%rip),%rax        # 2004 <_IO_stdin_used+0x4>
    1134:	48 89 45 f0          	mov    %rax,-0x10(%rbp)
    1138:	c7 45 fc 00 00 00 00 	movl   $0x0,-0x4(%rbp)
    113f:	eb 21                	jmp    1162 <victim_loop+0x39>
    1141:	0f ae f0             	mfence
    1144:	83 45 fc 02          	addl   $0x2,-0x4(%rbp)
    1148:	d1 65 fc             	shll   -0x4(%rbp)
    114b:	83 6d fc 04          	subl   $0x4,-0x4(%rbp)
    114f:	8b 45 fc             	mov    -0x4(%rbp),%eax
    1152:	89 c2                	mov    %eax,%edx
    1154:	c1 ea 1f             	shr    $0x1f,%edx
    1157:	01 d0                	add    %edx,%eax
    1159:	d1 f8                	sar    %eax
    115b:	89 45 fc             	mov    %eax,-0x4(%rbp)
    115e:	83 45 fc 01          	addl   $0x1,-0x4(%rbp)
    1162:	81 7d fc 3f 42 0f 00 	cmpl   $0xf423f,-0x4(%rbp)
    1169:	7e d6                	jle    1141 <victim_loop+0x18>
    116b:	90                   	nop
    116c:	90                   	nop
    116d:	5d                   	pop    %rbp
    116e:	c3                   	ret

000000000000116f <victim_loop2>:
    116f:	55                   	push   %rbp
    1170:	48 89 e5             	mov    %rsp,%rbp
    1173:	48 8d 05 8a 0e 00 00 	lea    0xe8a(%rip),%rax        # 2004 <_IO_stdin_used+0x4>
    117a:	48 89 45 f0          	mov    %rax,-0x10(%rbp)
    117e:	c7 45 fc 00 00 00 00 	movl   $0x0,-0x4(%rbp)
    1185:	eb 21                	jmp    11a8 <victim_loop2+0x39>
    1187:	0f ae f0             	mfence
    118a:	83 45 fc 02          	addl   $0x2,-0x4(%rbp)
    118e:	d1 65 fc             	shll   -0x4(%rbp)
    1191:	83 6d fc 04          	subl   $0x4,-0x4(%rbp)
    1195:	8b 45 fc             	mov    -0x4(%rbp),%eax
    1198:	89 c2                	mov    %eax,%edx
    119a:	c1 ea 1f             	shr    $0x1f,%edx
    119d:	01 d0                	add    %edx,%eax
    119f:	d1 f8                	sar    %eax
    11a1:	89 45 fc             	mov    %eax,-0x4(%rbp)
    11a4:	83 45 fc 01          	addl   $0x1,-0x4(%rbp)
    11a8:	81 7d fc 3f 42 0f 00 	cmpl   $0xf423f,-0x4(%rbp)
    11af:	7e d6                	jle    1187 <victim_loop2+0x18>
    11b1:	90                   	nop
    11b2:	90                   	nop
    11b3:	5d                   	pop    %rbp
    11b4:	c3                   	ret

00000000000011b5 <victim_call0>:
    11b5:	55                   	push   %rbp
    11b6:	48 89 e5             	mov    %rsp,%rbp
    11b9:	b8 00 00 00 00       	mov    $0x0,%eax
    11be:	e8 66 ff ff ff       	call   1129 <victim_loop>
    11c3:	b8 00 00 00 00       	mov    $0x0,%eax
    11c8:	e8 5c ff ff ff       	call   1129 <victim_loop>
    11cd:	b8 00 00 00 00       	mov    $0x0,%eax
    11d2:	e8 52 ff ff ff       	call   1129 <victim_loop>
    11d7:	b8 00 00 00 00       	mov    $0x0,%eax
    11dc:	e8 48 ff ff ff       	call   1129 <victim_loop>
    11e1:	90                   	nop
    11e2:	5d                   	pop    %rbp
    11e3:	c3                   	ret

00000000000011e4 <victim_call1>:
    11e4:	55                   	push   %rbp
    11e5:	48 89 e5             	mov    %rsp,%rbp
    11e8:	b8 00 00 00 00       	mov    $0x0,%eax
    11ed:	e8 7d ff ff ff       	call   116f <victim_loop2>
    11f2:	b8 00 00 00 00       	mov    $0x0,%eax
    11f7:	e8 73 ff ff ff       	call   116f <victim_loop2>
    11fc:	b8 00 00 00 00       	mov    $0x0,%eax
    1201:	e8 69 ff ff ff       	call   116f <victim_loop2>
    1206:	b8 00 00 00 00       	mov    $0x0,%eax
    120b:	e8 5f ff ff ff       	call   116f <victim_loop2>
    1210:	90                   	nop
    1211:	5d                   	pop    %rbp
    1212:	c3                   	ret

0000000000001213 <victim_call2>:
    1213:	55                   	push   %rbp
    1214:	48 89 e5             	mov    %rsp,%rbp
    1217:	b8 00 00 00 00       	mov    $0x0,%eax
    121c:	e8 c3 ff ff ff       	call   11e4 <victim_call1>
    1221:	b8 00 00 00 00       	mov    $0x0,%eax
    1226:	e8 b9 ff ff ff       	call   11e4 <victim_call1>
    122b:	b8 00 00 00 00       	mov    $0x0,%eax
    1230:	e8 af ff ff ff       	call   11e4 <victim_call1>
    1235:	b8 00 00 00 00       	mov    $0x0,%eax
    123a:	e8 a5 ff ff ff       	call   11e4 <victim_call1>
    123f:	90                   	nop
    1240:	5d                   	pop    %rbp
    1241:	c3                   	ret

0000000000001242 <victim_call3>:
    1242:	55                   	push   %rbp
    1243:	48 89 e5             	mov    %rsp,%rbp
    1246:	b8 00 00 00 00       	mov    $0x0,%eax
    124b:	e8 65 ff ff ff       	call   11b5 <victim_call0>
    1250:	b8 00 00 00 00       	mov    $0x0,%eax
    1255:	e8 5b ff ff ff       	call   11b5 <victim_call0>
    125a:	b8 00 00 00 00       	mov    $0x0,%eax
    125f:	e8 51 ff ff ff       	call   11b5 <victim_call0>
    1264:	b8 00 00 00 00       	mov    $0x0,%eax
    1269:	e8 47 ff ff ff       	call   11b5 <victim_call0>
    126e:	90                   	nop
    126f:	5d                   	pop    %rbp
    1270:	c3                   	ret

0000000000001271 <main>:
    1271:	55                   	push   %rbp
    1272:	48 89 e5             	mov    %rsp,%rbp
    1275:	b8 00 00 00 00       	mov    $0x0,%eax
    127a:	e8 94 ff ff ff       	call   1213 <victim_call2>
    127f:	b8 00 00 00 00       	mov    $0x0,%eax
    1284:	e8 8a ff ff ff       	call   1213 <victim_call2>
    1289:	b8 00 00 00 00       	mov    $0x0,%eax
    128e:	e8 80 ff ff ff       	call   1213 <victim_call2>
    1293:	b8 00 00 00 00       	mov    $0x0,%eax
    1298:	e8 76 ff ff ff       	call   1213 <victim_call2>
    129d:	b8 00 00 00 00       	mov    $0x0,%eax
    12a2:	5d                   	pop    %rbp
    12a3:	c3                   	ret

Disassembly of section .fini:

00000000000012a4 <_fini>:
    12a4:	48 83 ec 08          	sub    $0x8,%rsp
    12a8:	48 83 c4 08          	add    $0x8,%rsp
    12ac:	c3                   	ret
