
build/victim_new:     file format elf64-x86-64


Disassembly of section .init:

0000000000001000 <_init>:
    1000:	48 83 ec 08          	sub    $0x8,%rsp
    1004:	48 8b 05 c5 2f 00 00 	mov    0x2fc5(%rip),%rax        # 3fd0 <__gmon_start__@Base>
    100b:	48 85 c0             	test   %rax,%rax
    100e:	74 02                	je     1012 <_init+0x12>
    1010:	ff d0                	call   *%rax
    1012:	48 83 c4 08          	add    $0x8,%rsp
    1016:	c3                   	ret

Disassembly of section .plt:

0000000000001020 <malloc@plt-0x10>:
    1020:	ff 35 ca 2f 00 00    	push   0x2fca(%rip)        # 3ff0 <_GLOBAL_OFFSET_TABLE_+0x8>
    1026:	ff 25 cc 2f 00 00    	jmp    *0x2fcc(%rip)        # 3ff8 <_GLOBAL_OFFSET_TABLE_+0x10>
    102c:	0f 1f 40 00          	nopl   0x0(%rax)

0000000000001030 <malloc@plt>:
    1030:	ff 25 ca 2f 00 00    	jmp    *0x2fca(%rip)        # 4000 <malloc@GLIBC_2.2.5>
    1036:	68 00 00 00 00       	push   $0x0
    103b:	e9 e0 ff ff ff       	jmp    1020 <_init+0x20>

Disassembly of section .plt.got:

0000000000001040 <__cxa_finalize@plt>:
    1040:	ff 25 9a 2f 00 00    	jmp    *0x2f9a(%rip)        # 3fe0 <__cxa_finalize@GLIBC_2.2.5>
    1046:	66 90                	xchg   %ax,%ax

Disassembly of section .text:

0000000000001050 <_start>:
    1050:	31 ed                	xor    %ebp,%ebp
    1052:	49 89 d1             	mov    %rdx,%r9
    1055:	5e                   	pop    %rsi
    1056:	48 89 e2             	mov    %rsp,%rdx
    1059:	48 83 e4 f0          	and    $0xfffffffffffffff0,%rsp
    105d:	50                   	push   %rax
    105e:	54                   	push   %rsp
    105f:	45 31 c0             	xor    %r8d,%r8d
    1062:	31 c9                	xor    %ecx,%ecx
    1064:	48 8d 3d c6 04 00 00 	lea    0x4c6(%rip),%rdi        # 1531 <main>
    106b:	ff 15 4f 2f 00 00    	call   *0x2f4f(%rip)        # 3fc0 <__libc_start_main@GLIBC_2.34>
    1071:	f4                   	hlt
    1072:	66 2e 0f 1f 84 00 00 	cs nopw 0x0(%rax,%rax,1)
    1079:	00 00 00 
    107c:	0f 1f 40 00          	nopl   0x0(%rax)

0000000000001080 <deregister_tm_clones>:
    1080:	48 8d 3d 91 2f 00 00 	lea    0x2f91(%rip),%rdi        # 4018 <__TMC_END__>
    1087:	48 8d 05 8a 2f 00 00 	lea    0x2f8a(%rip),%rax        # 4018 <__TMC_END__>
    108e:	48 39 f8             	cmp    %rdi,%rax
    1091:	74 15                	je     10a8 <deregister_tm_clones+0x28>
    1093:	48 8b 05 2e 2f 00 00 	mov    0x2f2e(%rip),%rax        # 3fc8 <_ITM_deregisterTMCloneTable@Base>
    109a:	48 85 c0             	test   %rax,%rax
    109d:	74 09                	je     10a8 <deregister_tm_clones+0x28>
    109f:	ff e0                	jmp    *%rax
    10a1:	0f 1f 80 00 00 00 00 	nopl   0x0(%rax)
    10a8:	c3                   	ret
    10a9:	0f 1f 80 00 00 00 00 	nopl   0x0(%rax)

00000000000010b0 <register_tm_clones>:
    10b0:	48 8d 3d 61 2f 00 00 	lea    0x2f61(%rip),%rdi        # 4018 <__TMC_END__>
    10b7:	48 8d 35 5a 2f 00 00 	lea    0x2f5a(%rip),%rsi        # 4018 <__TMC_END__>
    10be:	48 29 fe             	sub    %rdi,%rsi
    10c1:	48 89 f0             	mov    %rsi,%rax
    10c4:	48 c1 ee 3f          	shr    $0x3f,%rsi
    10c8:	48 c1 f8 03          	sar    $0x3,%rax
    10cc:	48 01 c6             	add    %rax,%rsi
    10cf:	48 d1 fe             	sar    %rsi
    10d2:	74 14                	je     10e8 <register_tm_clones+0x38>
    10d4:	48 8b 05 fd 2e 00 00 	mov    0x2efd(%rip),%rax        # 3fd8 <_ITM_registerTMCloneTable@Base>
    10db:	48 85 c0             	test   %rax,%rax
    10de:	74 08                	je     10e8 <register_tm_clones+0x38>
    10e0:	ff e0                	jmp    *%rax
    10e2:	66 0f 1f 44 00 00    	nopw   0x0(%rax,%rax,1)
    10e8:	c3                   	ret
    10e9:	0f 1f 80 00 00 00 00 	nopl   0x0(%rax)

00000000000010f0 <__do_global_dtors_aux>:
    10f0:	f3 0f 1e fa          	endbr64
    10f4:	80 3d 1d 2f 00 00 00 	cmpb   $0x0,0x2f1d(%rip)        # 4018 <__TMC_END__>
    10fb:	75 2b                	jne    1128 <__do_global_dtors_aux+0x38>
    10fd:	55                   	push   %rbp
    10fe:	48 83 3d da 2e 00 00 	cmpq   $0x0,0x2eda(%rip)        # 3fe0 <__cxa_finalize@GLIBC_2.2.5>
    1105:	00 
    1106:	48 89 e5             	mov    %rsp,%rbp
    1109:	74 0c                	je     1117 <__do_global_dtors_aux+0x27>
    110b:	48 8b 3d fe 2e 00 00 	mov    0x2efe(%rip),%rdi        # 4010 <__dso_handle>
    1112:	e8 29 ff ff ff       	call   1040 <__cxa_finalize@plt>
    1117:	e8 64 ff ff ff       	call   1080 <deregister_tm_clones>
    111c:	c6 05 f5 2e 00 00 01 	movb   $0x1,0x2ef5(%rip)        # 4018 <__TMC_END__>
    1123:	5d                   	pop    %rbp
    1124:	c3                   	ret
    1125:	0f 1f 00             	nopl   (%rax)
    1128:	c3                   	ret
    1129:	0f 1f 80 00 00 00 00 	nopl   0x0(%rax)

0000000000001130 <frame_dummy>:
    1130:	f3 0f 1e fa          	endbr64
    1134:	e9 77 ff ff ff       	jmp    10b0 <register_tm_clones>

0000000000001139 <victim_loop1>:
    1139:	55                   	push   %rbp
    113a:	48 89 e5             	mov    %rsp,%rbp
    113d:	c7 45 fc 06 00 00 00 	movl   $0x6,-0x4(%rbp)
    1144:	83 45 fc 02          	addl   $0x2,-0x4(%rbp)
    1148:	d1 65 fc             	shll   -0x4(%rbp)
    114b:	83 6d fc 04          	subl   $0x4,-0x4(%rbp)
    114f:	8b 45 fc             	mov    -0x4(%rbp),%eax
    1152:	89 c2                	mov    %eax,%edx
    1154:	c1 ea 1f             	shr    $0x1f,%edx
    1157:	01 d0                	add    %edx,%eax
    1159:	d1 f8                	sar    %eax
    115b:	89 45 fc             	mov    %eax,-0x4(%rbp)
    115e:	83 45 fc 03          	addl   $0x3,-0x4(%rbp)
    1162:	d1 65 fc             	shll   -0x4(%rbp)
    1165:	83 6d fc 06          	subl   $0x6,-0x4(%rbp)
    1169:	8b 45 fc             	mov    -0x4(%rbp),%eax
    116c:	89 c2                	mov    %eax,%edx
    116e:	c1 ea 1f             	shr    $0x1f,%edx
    1171:	01 d0                	add    %edx,%eax
    1173:	d1 f8                	sar    %eax
    1175:	89 45 fc             	mov    %eax,-0x4(%rbp)
    1178:	83 45 fc 04          	addl   $0x4,-0x4(%rbp)
    117c:	d1 65 fc             	shll   -0x4(%rbp)
    117f:	83 6d fc 08          	subl   $0x8,-0x4(%rbp)
    1183:	8b 45 fc             	mov    -0x4(%rbp),%eax
    1186:	89 c2                	mov    %eax,%edx
    1188:	c1 ea 1f             	shr    $0x1f,%edx
    118b:	01 d0                	add    %edx,%eax
    118d:	d1 f8                	sar    %eax
    118f:	89 45 fc             	mov    %eax,-0x4(%rbp)
    1192:	83 45 fc 03          	addl   $0x3,-0x4(%rbp)
    1196:	8b 55 fc             	mov    -0x4(%rbp),%edx
    1199:	89 d0                	mov    %edx,%eax
    119b:	01 c0                	add    %eax,%eax
    119d:	01 d0                	add    %edx,%eax
    119f:	89 45 fc             	mov    %eax,-0x4(%rbp)
    11a2:	83 6d fc 09          	subl   $0x9,-0x4(%rbp)
    11a6:	8b 45 fc             	mov    -0x4(%rbp),%eax
    11a9:	48 63 d0             	movslq %eax,%rdx
    11ac:	48 69 d2 56 55 55 55 	imul   $0x55555556,%rdx,%rdx
    11b3:	48 89 d1             	mov    %rdx,%rcx
    11b6:	48 c1 e9 20          	shr    $0x20,%rcx
    11ba:	99                   	cltd
    11bb:	89 c8                	mov    %ecx,%eax
    11bd:	29 d0                	sub    %edx,%eax
    11bf:	89 45 fc             	mov    %eax,-0x4(%rbp)
    11c2:	83 45 fc 04          	addl   $0x4,-0x4(%rbp)
    11c6:	8b 55 fc             	mov    -0x4(%rbp),%edx
    11c9:	89 d0                	mov    %edx,%eax
    11cb:	01 c0                	add    %eax,%eax
    11cd:	01 d0                	add    %edx,%eax
    11cf:	89 45 fc             	mov    %eax,-0x4(%rbp)
    11d2:	83 6d fc 0c          	subl   $0xc,-0x4(%rbp)
    11d6:	8b 45 fc             	mov    -0x4(%rbp),%eax
    11d9:	48 63 d0             	movslq %eax,%rdx
    11dc:	48 69 d2 56 55 55 55 	imul   $0x55555556,%rdx,%rdx
    11e3:	48 89 d1             	mov    %rdx,%rcx
    11e6:	48 c1 e9 20          	shr    $0x20,%rcx
    11ea:	99                   	cltd
    11eb:	89 c8                	mov    %ecx,%eax
    11ed:	29 d0                	sub    %edx,%eax
    11ef:	89 45 fc             	mov    %eax,-0x4(%rbp)
    11f2:	8b 45 fc             	mov    -0x4(%rbp),%eax
    11f5:	5d                   	pop    %rbp
    11f6:	c3                   	ret

00000000000011f7 <barrier>:
    11f7:	55                   	push   %rbp
    11f8:	48 89 e5             	mov    %rsp,%rbp
    11fb:	53                   	push   %rbx
    11fc:	48 83 ec 28          	sub    $0x28,%rsp
    1200:	48 c7 45 e8 00 00 00 	movq   $0x0,-0x18(%rbp)
    1207:	00 
    1208:	48 c7 45 e0 00 00 00 	movq   $0x0,-0x20(%rbp)
    120f:	00 
    1210:	bf 08 00 00 00       	mov    $0x8,%edi
    1215:	e8 16 fe ff ff       	call   1030 <malloc@plt>
    121a:	48 89 45 d8          	mov    %rax,-0x28(%rbp)
    121e:	48 8b 45 d8          	mov    -0x28(%rbp),%rax
    1222:	48 8b 7d e0          	mov    -0x20(%rbp),%rdi
    1226:	48 89 c3             	mov    %rax,%rbx
    1229:	49 89 d8             	mov    %rbx,%r8
    122c:	49 89 f9             	mov    %rdi,%r9
    122f:	0f ae f0             	mfence
    1232:	0f 01 f9             	rdtscp
    1235:	48 89 c6             	mov    %rax,%rsi
    1238:	0f ae e8             	lfence

000000000000123b <loop>:
    123b:	4d 8b 00             	mov    (%r8),%r8
    123e:	49 ff c9             	dec    %r9
    1241:	0f ae e8             	lfence
    1244:	75 f5                	jne    123b <loop>
    1246:	0f ae e8             	lfence
    1249:	0f 01 f9             	rdtscp
    124c:	48 29 f0             	sub    %rsi,%rax
    124f:	49 89 d8             	mov    %rbx,%r8
    1252:	49 89 f9             	mov    %rdi,%r9
    1255:	0f ae f0             	mfence
    1258:	0f 01 f9             	rdtscp
    125b:	48 89 c6             	mov    %rax,%rsi
    125e:	0f ae e8             	lfence
    1261:	4d 8b 00             	mov    (%r8),%r8
    1264:	49 ff c9             	dec    %r9
    1267:	0f ae e8             	lfence
    126a:	75 cf                	jne    123b <loop>
    126c:	0f ae e8             	lfence
    126f:	0f 01 f9             	rdtscp
    1272:	48 29 f0             	sub    %rsi,%rax
    1275:	49 89 d8             	mov    %rbx,%r8
    1278:	49 89 f9             	mov    %rdi,%r9
    127b:	0f ae f0             	mfence
    127e:	0f 01 f9             	rdtscp
    1281:	48 89 c6             	mov    %rax,%rsi
    1284:	0f ae e8             	lfence
    1287:	4d 8b 00             	mov    (%r8),%r8
    128a:	49 ff c9             	dec    %r9
    128d:	0f ae e8             	lfence
    1290:	75 a9                	jne    123b <loop>
    1292:	0f ae e8             	lfence
    1295:	0f 01 f9             	rdtscp
    1298:	48 29 f0             	sub    %rsi,%rax
    129b:	49 89 d8             	mov    %rbx,%r8
    129e:	49 89 f9             	mov    %rdi,%r9
    12a1:	0f ae f0             	mfence
    12a4:	0f 01 f9             	rdtscp
    12a7:	48 89 c6             	mov    %rax,%rsi
    12aa:	0f ae e8             	lfence
    12ad:	4d 8b 00             	mov    (%r8),%r8
    12b0:	49 ff c9             	dec    %r9
    12b3:	0f ae e8             	lfence
    12b6:	75 83                	jne    123b <loop>
    12b8:	0f ae e8             	lfence
    12bb:	0f 01 f9             	rdtscp
    12be:	48 29 f0             	sub    %rsi,%rax
    12c1:	49 89 d8             	mov    %rbx,%r8
    12c4:	49 89 f9             	mov    %rdi,%r9
    12c7:	0f ae f0             	mfence
    12ca:	0f 01 f9             	rdtscp
    12cd:	48 89 c6             	mov    %rax,%rsi
    12d0:	0f ae e8             	lfence
    12d3:	4d 8b 00             	mov    (%r8),%r8
    12d6:	49 ff c9             	dec    %r9
    12d9:	0f ae e8             	lfence
    12dc:	0f 85 59 ff ff ff    	jne    123b <loop>
    12e2:	0f ae e8             	lfence
    12e5:	0f 01 f9             	rdtscp
    12e8:	48 29 f0             	sub    %rsi,%rax
    12eb:	49 89 d8             	mov    %rbx,%r8
    12ee:	49 89 f9             	mov    %rdi,%r9
    12f1:	0f ae f0             	mfence
    12f4:	0f 01 f9             	rdtscp
    12f7:	48 89 c6             	mov    %rax,%rsi
    12fa:	0f ae e8             	lfence
    12fd:	4d 8b 00             	mov    (%r8),%r8
    1300:	49 ff c9             	dec    %r9
    1303:	0f ae e8             	lfence
    1306:	0f 85 2f ff ff ff    	jne    123b <loop>
    130c:	0f ae e8             	lfence
    130f:	0f 01 f9             	rdtscp
    1312:	48 29 f0             	sub    %rsi,%rax
    1315:	49 89 d8             	mov    %rbx,%r8
    1318:	49 89 f9             	mov    %rdi,%r9
    131b:	0f ae f0             	mfence
    131e:	0f 01 f9             	rdtscp
    1321:	48 89 c6             	mov    %rax,%rsi
    1324:	0f ae e8             	lfence
    1327:	4d 8b 00             	mov    (%r8),%r8
    132a:	49 ff c9             	dec    %r9
    132d:	0f ae e8             	lfence
    1330:	0f 85 05 ff ff ff    	jne    123b <loop>
    1336:	0f ae e8             	lfence
    1339:	0f 01 f9             	rdtscp
    133c:	48 29 f0             	sub    %rsi,%rax
    133f:	48 89 45 e8          	mov    %rax,-0x18(%rbp)
    1343:	90                   	nop
    1344:	48 8b 5d f8          	mov    -0x8(%rbp),%rbx
    1348:	c9                   	leave
    1349:	c3                   	ret

000000000000134a <victim_loop2>:
    134a:	55                   	push   %rbp
    134b:	48 89 e5             	mov    %rsp,%rbp
    134e:	c7 45 fc 0a 00 00 00 	movl   $0xa,-0x4(%rbp)
    1355:	83 45 fc 02          	addl   $0x2,-0x4(%rbp)
    1359:	d1 65 fc             	shll   -0x4(%rbp)
    135c:	83 6d fc 04          	subl   $0x4,-0x4(%rbp)
    1360:	8b 45 fc             	mov    -0x4(%rbp),%eax
    1363:	89 c2                	mov    %eax,%edx
    1365:	c1 ea 1f             	shr    $0x1f,%edx
    1368:	01 d0                	add    %edx,%eax
    136a:	d1 f8                	sar    %eax
    136c:	89 45 fc             	mov    %eax,-0x4(%rbp)
    136f:	83 45 fc 03          	addl   $0x3,-0x4(%rbp)
    1373:	d1 65 fc             	shll   -0x4(%rbp)
    1376:	83 6d fc 06          	subl   $0x6,-0x4(%rbp)
    137a:	8b 45 fc             	mov    -0x4(%rbp),%eax
    137d:	89 c2                	mov    %eax,%edx
    137f:	c1 ea 1f             	shr    $0x1f,%edx
    1382:	01 d0                	add    %edx,%eax
    1384:	d1 f8                	sar    %eax
    1386:	89 45 fc             	mov    %eax,-0x4(%rbp)
    1389:	83 45 fc 04          	addl   $0x4,-0x4(%rbp)
    138d:	d1 65 fc             	shll   -0x4(%rbp)
    1390:	83 6d fc 08          	subl   $0x8,-0x4(%rbp)
    1394:	8b 45 fc             	mov    -0x4(%rbp),%eax
    1397:	89 c2                	mov    %eax,%edx
    1399:	c1 ea 1f             	shr    $0x1f,%edx
    139c:	01 d0                	add    %edx,%eax
    139e:	d1 f8                	sar    %eax
    13a0:	89 45 fc             	mov    %eax,-0x4(%rbp)
    13a3:	83 45 fc 03          	addl   $0x3,-0x4(%rbp)
    13a7:	8b 55 fc             	mov    -0x4(%rbp),%edx
    13aa:	89 d0                	mov    %edx,%eax
    13ac:	01 c0                	add    %eax,%eax
    13ae:	01 d0                	add    %edx,%eax
    13b0:	89 45 fc             	mov    %eax,-0x4(%rbp)
    13b3:	83 6d fc 09          	subl   $0x9,-0x4(%rbp)
    13b7:	8b 45 fc             	mov    -0x4(%rbp),%eax
    13ba:	48 63 d0             	movslq %eax,%rdx
    13bd:	48 69 d2 56 55 55 55 	imul   $0x55555556,%rdx,%rdx
    13c4:	48 89 d1             	mov    %rdx,%rcx
    13c7:	48 c1 e9 20          	shr    $0x20,%rcx
    13cb:	99                   	cltd
    13cc:	89 c8                	mov    %ecx,%eax
    13ce:	29 d0                	sub    %edx,%eax
    13d0:	89 45 fc             	mov    %eax,-0x4(%rbp)
    13d3:	83 45 fc 04          	addl   $0x4,-0x4(%rbp)
    13d7:	8b 55 fc             	mov    -0x4(%rbp),%edx
    13da:	89 d0                	mov    %edx,%eax
    13dc:	01 c0                	add    %eax,%eax
    13de:	01 d0                	add    %edx,%eax
    13e0:	89 45 fc             	mov    %eax,-0x4(%rbp)
    13e3:	83 6d fc 0c          	subl   $0xc,-0x4(%rbp)
    13e7:	8b 45 fc             	mov    -0x4(%rbp),%eax
    13ea:	48 63 d0             	movslq %eax,%rdx
    13ed:	48 69 d2 56 55 55 55 	imul   $0x55555556,%rdx,%rdx
    13f4:	48 89 d1             	mov    %rdx,%rcx
    13f7:	48 c1 e9 20          	shr    $0x20,%rcx
    13fb:	99                   	cltd
    13fc:	89 c8                	mov    %ecx,%eax
    13fe:	29 d0                	sub    %edx,%eax
    1400:	89 45 fc             	mov    %eax,-0x4(%rbp)
    1403:	8b 45 fc             	mov    -0x4(%rbp),%eax
    1406:	5d                   	pop    %rbp
    1407:	c3                   	ret

0000000000001408 <barrier2>:
    1408:	55                   	push   %rbp
    1409:	48 89 e5             	mov    %rsp,%rbp
    140c:	53                   	push   %rbx
    140d:	48 83 ec 28          	sub    $0x28,%rsp
    1411:	48 c7 45 e8 00 00 00 	movq   $0x0,-0x18(%rbp)
    1418:	00 
    1419:	48 c7 45 e0 00 00 00 	movq   $0x0,-0x20(%rbp)
    1420:	00 
    1421:	bf 08 00 00 00       	mov    $0x8,%edi
    1426:	e8 05 fc ff ff       	call   1030 <malloc@plt>
    142b:	48 89 45 d8          	mov    %rax,-0x28(%rbp)
    142f:	48 8b 45 d8          	mov    -0x28(%rbp),%rax
    1433:	48 8b 7d e0          	mov    -0x20(%rbp),%rdi
    1437:	48 89 c3             	mov    %rax,%rbx
    143a:	49 89 d8             	mov    %rbx,%r8
    143d:	49 89 f9             	mov    %rdi,%r9
    1440:	0f ae f0             	mfence
    1443:	0f 01 f9             	rdtscp
    1446:	48 89 c6             	mov    %rax,%rsi
    1449:	0f ae e8             	lfence

000000000000144c <loop2>:
    144c:	4d 8b 00             	mov    (%r8),%r8
    144f:	49 ff c9             	dec    %r9
    1452:	0f ae e8             	lfence
    1455:	75 f5                	jne    144c <loop2>
    1457:	0f ae e8             	lfence
    145a:	0f 01 f9             	rdtscp
    145d:	48 29 f0             	sub    %rsi,%rax
    1460:	49 89 d8             	mov    %rbx,%r8
    1463:	49 89 f9             	mov    %rdi,%r9
    1466:	0f ae f0             	mfence
    1469:	0f 01 f9             	rdtscp
    146c:	48 89 c6             	mov    %rax,%rsi
    146f:	0f ae e8             	lfence
    1472:	4d 8b 00             	mov    (%r8),%r8
    1475:	49 ff c9             	dec    %r9
    1478:	0f ae e8             	lfence
    147b:	0f 85 ba fd ff ff    	jne    123b <loop>
    1481:	0f ae e8             	lfence
    1484:	0f 01 f9             	rdtscp
    1487:	48 29 f0             	sub    %rsi,%rax
    148a:	49 89 d8             	mov    %rbx,%r8
    148d:	49 89 f9             	mov    %rdi,%r9
    1490:	0f ae f0             	mfence
    1493:	0f 01 f9             	rdtscp
    1496:	48 89 c6             	mov    %rax,%rsi
    1499:	0f ae e8             	lfence
    149c:	4d 8b 00             	mov    (%r8),%r8
    149f:	49 ff c9             	dec    %r9
    14a2:	0f ae e8             	lfence
    14a5:	0f 85 90 fd ff ff    	jne    123b <loop>
    14ab:	0f ae e8             	lfence
    14ae:	0f 01 f9             	rdtscp
    14b1:	48 29 f0             	sub    %rsi,%rax
    14b4:	49 89 d8             	mov    %rbx,%r8
    14b7:	49 89 f9             	mov    %rdi,%r9
    14ba:	0f ae f0             	mfence
    14bd:	0f 01 f9             	rdtscp
    14c0:	48 89 c6             	mov    %rax,%rsi
    14c3:	0f ae e8             	lfence
    14c6:	4d 8b 00             	mov    (%r8),%r8
    14c9:	49 ff c9             	dec    %r9
    14cc:	0f ae e8             	lfence
    14cf:	0f 85 66 fd ff ff    	jne    123b <loop>
    14d5:	0f ae e8             	lfence
    14d8:	0f 01 f9             	rdtscp
    14db:	48 29 f0             	sub    %rsi,%rax
    14de:	49 89 d8             	mov    %rbx,%r8
    14e1:	49 89 f9             	mov    %rdi,%r9
    14e4:	0f ae f0             	mfence
    14e7:	0f 01 f9             	rdtscp
    14ea:	48 89 c6             	mov    %rax,%rsi
    14ed:	0f ae e8             	lfence
    14f0:	4d 8b 00             	mov    (%r8),%r8
    14f3:	49 ff c9             	dec    %r9
    14f6:	0f ae e8             	lfence
    14f9:	0f 85 3c fd ff ff    	jne    123b <loop>
    14ff:	0f ae e8             	lfence
    1502:	0f ae f0             	mfence
    1505:	0f 01 f9             	rdtscp
    1508:	48 89 c6             	mov    %rax,%rsi
    150b:	0f ae e8             	lfence
    150e:	4d 8b 00             	mov    (%r8),%r8
    1511:	49 ff c9             	dec    %r9
    1514:	0f ae e8             	lfence
    1517:	0f 85 1e fd ff ff    	jne    123b <loop>
    151d:	0f ae e8             	lfence
    1520:	0f 01 f9             	rdtscp
    1523:	48 29 f0             	sub    %rsi,%rax
    1526:	48 89 45 e8          	mov    %rax,-0x18(%rbp)
    152a:	90                   	nop
    152b:	48 8b 5d f8          	mov    -0x8(%rbp),%rbx
    152f:	c9                   	leave
    1530:	c3                   	ret

0000000000001531 <main>:
    1531:	55                   	push   %rbp
    1532:	48 89 e5             	mov    %rsp,%rbp
    1535:	b8 00 00 00 00       	mov    $0x0,%eax
    153a:	e8 fa fb ff ff       	call   1139 <victim_loop1>
    153f:	b8 00 00 00 00       	mov    $0x0,%eax
    1544:	5d                   	pop    %rbp
    1545:	c3                   	ret

Disassembly of section .fini:

0000000000001548 <_fini>:
    1548:	48 83 ec 08          	sub    $0x8,%rsp
    154c:	48 83 c4 08          	add    $0x8,%rsp
    1550:	c3                   	ret
