
./build/victim:     file format elf64-x86-64


Disassembly of section .init:

0000000000001000 <_init>:
    1000:	48 83 ec 08          	sub    $0x8,%rsp
    1004:	48 8b 05 c5 2f 00 00 	mov    0x2fc5(%rip),%rax        # 3fd0 <__gmon_start__@Base>
    100b:	48 85 c0             	test   %rax,%rax
    100e:	74 02                	je     1012 <_init+0x12>
    1010:	ff d0                	call   *%rax
    1012:	48 83 c4 08          	add    $0x8,%rsp
    1016:	c3                   	ret

Disassembly of section .plt:

0000000000001020 <strlen@plt-0x10>:
    1020:	ff 35 ca 2f 00 00    	push   0x2fca(%rip)        # 3ff0 <_GLOBAL_OFFSET_TABLE_+0x8>
    1026:	ff 25 cc 2f 00 00    	jmp    *0x2fcc(%rip)        # 3ff8 <_GLOBAL_OFFSET_TABLE_+0x10>
    102c:	0f 1f 40 00          	nopl   0x0(%rax)

0000000000001030 <strlen@plt>:
    1030:	ff 25 ca 2f 00 00    	jmp    *0x2fca(%rip)        # 4000 <strlen@GLIBC_2.2.5>
    1036:	68 00 00 00 00       	push   $0x0
    103b:	e9 e0 ff ff ff       	jmp    1020 <_init+0x20>

Disassembly of section .plt.got:

0000000000001040 <__cxa_finalize@plt>:
    1040:	ff 25 9a 2f 00 00    	jmp    *0x2f9a(%rip)        # 3fe0 <__cxa_finalize@GLIBC_2.2.5>
    1046:	66 90                	xchg   %ax,%ax

Disassembly of section .text:

0000000000001050 <_start>:
    1050:	31 ed                	xor    %ebp,%ebp
    1052:	49 89 d1             	mov    %rdx,%r9
    1055:	5e                   	pop    %rsi
    1056:	48 89 e2             	mov    %rsp,%rdx
    1059:	48 83 e4 f0          	and    $0xfffffffffffffff0,%rsp
    105d:	50                   	push   %rax
    105e:	54                   	push   %rsp
    105f:	45 31 c0             	xor    %r8d,%r8d
    1062:	31 c9                	xor    %ecx,%ecx
    1064:	48 8d 3d 5c 0a 00 00 	lea    0xa5c(%rip),%rdi        # 1ac7 <main>
    106b:	ff 15 4f 2f 00 00    	call   *0x2f4f(%rip)        # 3fc0 <__libc_start_main@GLIBC_2.34>
    1071:	f4                   	hlt
    1072:	66 2e 0f 1f 84 00 00 	cs nopw 0x0(%rax,%rax,1)
    1079:	00 00 00 
    107c:	0f 1f 40 00          	nopl   0x0(%rax)

0000000000001080 <deregister_tm_clones>:
    1080:	48 8d 3d 91 2f 00 00 	lea    0x2f91(%rip),%rdi        # 4018 <__TMC_END__>
    1087:	48 8d 05 8a 2f 00 00 	lea    0x2f8a(%rip),%rax        # 4018 <__TMC_END__>
    108e:	48 39 f8             	cmp    %rdi,%rax
    1091:	74 15                	je     10a8 <deregister_tm_clones+0x28>
    1093:	48 8b 05 2e 2f 00 00 	mov    0x2f2e(%rip),%rax        # 3fc8 <_ITM_deregisterTMCloneTable@Base>
    109a:	48 85 c0             	test   %rax,%rax
    109d:	74 09                	je     10a8 <deregister_tm_clones+0x28>
    109f:	ff e0                	jmp    *%rax
    10a1:	0f 1f 80 00 00 00 00 	nopl   0x0(%rax)
    10a8:	c3                   	ret
    10a9:	0f 1f 80 00 00 00 00 	nopl   0x0(%rax)

00000000000010b0 <register_tm_clones>:
    10b0:	48 8d 3d 61 2f 00 00 	lea    0x2f61(%rip),%rdi        # 4018 <__TMC_END__>
    10b7:	48 8d 35 5a 2f 00 00 	lea    0x2f5a(%rip),%rsi        # 4018 <__TMC_END__>
    10be:	48 29 fe             	sub    %rdi,%rsi
    10c1:	48 89 f0             	mov    %rsi,%rax
    10c4:	48 c1 ee 3f          	shr    $0x3f,%rsi
    10c8:	48 c1 f8 03          	sar    $0x3,%rax
    10cc:	48 01 c6             	add    %rax,%rsi
    10cf:	48 d1 fe             	sar    %rsi
    10d2:	74 14                	je     10e8 <register_tm_clones+0x38>
    10d4:	48 8b 05 fd 2e 00 00 	mov    0x2efd(%rip),%rax        # 3fd8 <_ITM_registerTMCloneTable@Base>
    10db:	48 85 c0             	test   %rax,%rax
    10de:	74 08                	je     10e8 <register_tm_clones+0x38>
    10e0:	ff e0                	jmp    *%rax
    10e2:	66 0f 1f 44 00 00    	nopw   0x0(%rax,%rax,1)
    10e8:	c3                   	ret
    10e9:	0f 1f 80 00 00 00 00 	nopl   0x0(%rax)

00000000000010f0 <__do_global_dtors_aux>:
    10f0:	f3 0f 1e fa          	endbr64
    10f4:	80 3d 1d 2f 00 00 00 	cmpb   $0x0,0x2f1d(%rip)        # 4018 <__TMC_END__>
    10fb:	75 2b                	jne    1128 <__do_global_dtors_aux+0x38>
    10fd:	55                   	push   %rbp
    10fe:	48 83 3d da 2e 00 00 	cmpq   $0x0,0x2eda(%rip)        # 3fe0 <__cxa_finalize@GLIBC_2.2.5>
    1105:	00 
    1106:	48 89 e5             	mov    %rsp,%rbp
    1109:	74 0c                	je     1117 <__do_global_dtors_aux+0x27>
    110b:	48 8b 3d fe 2e 00 00 	mov    0x2efe(%rip),%rdi        # 4010 <__dso_handle>
    1112:	e8 29 ff ff ff       	call   1040 <__cxa_finalize@plt>
    1117:	e8 64 ff ff ff       	call   1080 <deregister_tm_clones>
    111c:	c6 05 f5 2e 00 00 01 	movb   $0x1,0x2ef5(%rip)        # 4018 <__TMC_END__>
    1123:	5d                   	pop    %rbp
    1124:	c3                   	ret
    1125:	0f 1f 00             	nopl   (%rax)
    1128:	c3                   	ret
    1129:	0f 1f 80 00 00 00 00 	nopl   0x0(%rax)

0000000000001130 <frame_dummy>:
    1130:	f3 0f 1e fa          	endbr64
    1134:	e9 77 ff ff ff       	jmp    10b0 <register_tm_clones>

0000000000001139 <victim_loop>:
    1139:	55                   	push   %rbp
    113a:	48 89 e5             	mov    %rsp,%rbp
    113d:	48 83 ec 30          	sub    $0x30,%rsp
    1141:	48 8d 05 bc 0e 00 00 	lea    0xebc(%rip),%rax        # 2004 <_IO_stdin_used+0x4>
    1148:	48 89 45 e0          	mov    %rax,-0x20(%rbp)
    114c:	c7 45 fc 00 00 00 00 	movl   $0x0,-0x4(%rbp)
    1153:	eb 21                	jmp    1176 <victim_loop+0x3d>
    1155:	0f ae f0             	mfence
    1158:	83 45 fc 02          	addl   $0x2,-0x4(%rbp)
    115c:	d1 65 fc             	shll   -0x4(%rbp)
    115f:	83 6d fc 04          	subl   $0x4,-0x4(%rbp)
    1163:	8b 45 fc             	mov    -0x4(%rbp),%eax
    1166:	89 c2                	mov    %eax,%edx
    1168:	c1 ea 1f             	shr    $0x1f,%edx
    116b:	01 d0                	add    %edx,%eax
    116d:	d1 f8                	sar    %eax
    116f:	89 45 fc             	mov    %eax,-0x4(%rbp)
    1172:	83 45 fc 01          	addl   $0x1,-0x4(%rbp)
    1176:	81 7d fc 3f 42 0f 00 	cmpl   $0xf423f,-0x4(%rbp)
    117d:	7e d6                	jle    1155 <victim_loop+0x1c>
    117f:	48 8b 45 e0          	mov    -0x20(%rbp),%rax
    1183:	48 89 c7             	mov    %rax,%rdi
    1186:	e8 a5 fe ff ff       	call   1030 <strlen@plt>
    118b:	89 45 dc             	mov    %eax,-0x24(%rbp)
    118e:	c7 45 f8 00 00 00 00 	movl   $0x0,-0x8(%rbp)
    1195:	e9 ec 00 00 00       	jmp    1286 <victim_loop+0x14d>
    119a:	8b 45 f8             	mov    -0x8(%rbp),%eax
    119d:	48 63 d0             	movslq %eax,%rdx
    11a0:	48 8b 45 e0          	mov    -0x20(%rbp),%rax
    11a4:	48 01 d0             	add    %rdx,%rax
    11a7:	0f b6 00             	movzbl (%rax),%eax
    11aa:	3c 60                	cmp    $0x60,%al
    11ac:	7e 61                	jle    120f <victim_loop+0xd6>
    11ae:	8b 45 f8             	mov    -0x8(%rbp),%eax
    11b1:	48 63 d0             	movslq %eax,%rdx
    11b4:	48 8b 45 e0          	mov    -0x20(%rbp),%rax
    11b8:	48 01 d0             	add    %rdx,%rax
    11bb:	0f b6 00             	movzbl (%rax),%eax
    11be:	3c 7a                	cmp    $0x7a,%al
    11c0:	7f 4d                	jg     120f <victim_loop+0xd6>
    11c2:	8b 45 f8             	mov    -0x8(%rbp),%eax
    11c5:	48 63 d0             	movslq %eax,%rdx
    11c8:	48 8b 45 e0          	mov    -0x20(%rbp),%rax
    11cc:	48 01 d0             	add    %rdx,%rax
    11cf:	0f b6 00             	movzbl (%rax),%eax
    11d2:	0f be c0             	movsbl %al,%eax
    11d5:	83 e8 5e             	sub    $0x5e,%eax
    11d8:	48 63 d0             	movslq %eax,%rdx
    11db:	48 69 d2 4f ec c4 4e 	imul   $0x4ec4ec4f,%rdx,%rdx
    11e2:	48 c1 ea 20          	shr    $0x20,%rdx
    11e6:	c1 fa 03             	sar    $0x3,%edx
    11e9:	89 c1                	mov    %eax,%ecx
    11eb:	c1 f9 1f             	sar    $0x1f,%ecx
    11ee:	29 ca                	sub    %ecx,%edx
    11f0:	6b ca 1a             	imul   $0x1a,%edx,%ecx
    11f3:	29 c8                	sub    %ecx,%eax
    11f5:	89 c2                	mov    %eax,%edx
    11f7:	89 d0                	mov    %edx,%eax
    11f9:	8d 48 61             	lea    0x61(%rax),%ecx
    11fc:	8b 45 f8             	mov    -0x8(%rbp),%eax
    11ff:	48 63 d0             	movslq %eax,%rdx
    1202:	48 8b 45 e0          	mov    -0x20(%rbp),%rax
    1206:	48 01 d0             	add    %rdx,%rax
    1209:	89 ca                	mov    %ecx,%edx
    120b:	88 10                	mov    %dl,(%rax)
    120d:	eb 73                	jmp    1282 <victim_loop+0x149>
    120f:	8b 45 f8             	mov    -0x8(%rbp),%eax
    1212:	48 63 d0             	movslq %eax,%rdx
    1215:	48 8b 45 e0          	mov    -0x20(%rbp),%rax
    1219:	48 01 d0             	add    %rdx,%rax
    121c:	0f b6 00             	movzbl (%rax),%eax
    121f:	3c 40                	cmp    $0x40,%al
    1221:	7e 5f                	jle    1282 <victim_loop+0x149>
    1223:	8b 45 f8             	mov    -0x8(%rbp),%eax
    1226:	48 63 d0             	movslq %eax,%rdx
    1229:	48 8b 45 e0          	mov    -0x20(%rbp),%rax
    122d:	48 01 d0             	add    %rdx,%rax
    1230:	0f b6 00             	movzbl (%rax),%eax
    1233:	3c 5a                	cmp    $0x5a,%al
    1235:	7f 4b                	jg     1282 <victim_loop+0x149>
    1237:	8b 45 f8             	mov    -0x8(%rbp),%eax
    123a:	48 63 d0             	movslq %eax,%rdx
    123d:	48 8b 45 e0          	mov    -0x20(%rbp),%rax
    1241:	48 01 d0             	add    %rdx,%rax
    1244:	0f b6 00             	movzbl (%rax),%eax
    1247:	0f be c0             	movsbl %al,%eax
    124a:	83 e8 3e             	sub    $0x3e,%eax
    124d:	48 63 d0             	movslq %eax,%rdx
    1250:	48 69 d2 4f ec c4 4e 	imul   $0x4ec4ec4f,%rdx,%rdx
    1257:	48 c1 ea 20          	shr    $0x20,%rdx
    125b:	c1 fa 03             	sar    $0x3,%edx
    125e:	89 c1                	mov    %eax,%ecx
    1260:	c1 f9 1f             	sar    $0x1f,%ecx
    1263:	29 ca                	sub    %ecx,%edx
    1265:	6b ca 1a             	imul   $0x1a,%edx,%ecx
    1268:	29 c8                	sub    %ecx,%eax
    126a:	89 c2                	mov    %eax,%edx
    126c:	89 d0                	mov    %edx,%eax
    126e:	8d 48 41             	lea    0x41(%rax),%ecx
    1271:	8b 45 f8             	mov    -0x8(%rbp),%eax
    1274:	48 63 d0             	movslq %eax,%rdx
    1277:	48 8b 45 e0          	mov    -0x20(%rbp),%rax
    127b:	48 01 d0             	add    %rdx,%rax
    127e:	89 ca                	mov    %ecx,%edx
    1280:	88 10                	mov    %dl,(%rax)
    1282:	83 45 f8 01          	addl   $0x1,-0x8(%rbp)
    1286:	8b 45 f8             	mov    -0x8(%rbp),%eax
    1289:	3b 45 dc             	cmp    -0x24(%rbp),%eax
    128c:	0f 8c 08 ff ff ff    	jl     119a <victim_loop+0x61>
    1292:	c7 45 f4 00 00 00 00 	movl   $0x0,-0xc(%rbp)
    1299:	e9 ec 00 00 00       	jmp    138a <victim_loop+0x251>
    129e:	8b 45 f4             	mov    -0xc(%rbp),%eax
    12a1:	48 63 d0             	movslq %eax,%rdx
    12a4:	48 8b 45 e0          	mov    -0x20(%rbp),%rax
    12a8:	48 01 d0             	add    %rdx,%rax
    12ab:	0f b6 00             	movzbl (%rax),%eax
    12ae:	3c 60                	cmp    $0x60,%al
    12b0:	7e 61                	jle    1313 <victim_loop+0x1da>
    12b2:	8b 45 f4             	mov    -0xc(%rbp),%eax
    12b5:	48 63 d0             	movslq %eax,%rdx
    12b8:	48 8b 45 e0          	mov    -0x20(%rbp),%rax
    12bc:	48 01 d0             	add    %rdx,%rax
    12bf:	0f b6 00             	movzbl (%rax),%eax
    12c2:	3c 7a                	cmp    $0x7a,%al
    12c4:	7f 4d                	jg     1313 <victim_loop+0x1da>
    12c6:	8b 45 f4             	mov    -0xc(%rbp),%eax
    12c9:	48 63 d0             	movslq %eax,%rdx
    12cc:	48 8b 45 e0          	mov    -0x20(%rbp),%rax
    12d0:	48 01 d0             	add    %rdx,%rax
    12d3:	0f b6 00             	movzbl (%rax),%eax
    12d6:	0f be c0             	movsbl %al,%eax
    12d9:	83 e8 5e             	sub    $0x5e,%eax
    12dc:	48 63 d0             	movslq %eax,%rdx
    12df:	48 69 d2 4f ec c4 4e 	imul   $0x4ec4ec4f,%rdx,%rdx
    12e6:	48 c1 ea 20          	shr    $0x20,%rdx
    12ea:	c1 fa 03             	sar    $0x3,%edx
    12ed:	89 c1                	mov    %eax,%ecx
    12ef:	c1 f9 1f             	sar    $0x1f,%ecx
    12f2:	29 ca                	sub    %ecx,%edx
    12f4:	6b ca 1a             	imul   $0x1a,%edx,%ecx
    12f7:	29 c8                	sub    %ecx,%eax
    12f9:	89 c2                	mov    %eax,%edx
    12fb:	89 d0                	mov    %edx,%eax
    12fd:	8d 48 61             	lea    0x61(%rax),%ecx
    1300:	8b 45 f4             	mov    -0xc(%rbp),%eax
    1303:	48 63 d0             	movslq %eax,%rdx
    1306:	48 8b 45 e0          	mov    -0x20(%rbp),%rax
    130a:	48 01 d0             	add    %rdx,%rax
    130d:	89 ca                	mov    %ecx,%edx
    130f:	88 10                	mov    %dl,(%rax)
    1311:	eb 73                	jmp    1386 <victim_loop+0x24d>
    1313:	8b 45 f4             	mov    -0xc(%rbp),%eax
    1316:	48 63 d0             	movslq %eax,%rdx
    1319:	48 8b 45 e0          	mov    -0x20(%rbp),%rax
    131d:	48 01 d0             	add    %rdx,%rax
    1320:	0f b6 00             	movzbl (%rax),%eax
    1323:	3c 40                	cmp    $0x40,%al
    1325:	7e 5f                	jle    1386 <victim_loop+0x24d>
    1327:	8b 45 f4             	mov    -0xc(%rbp),%eax
    132a:	48 63 d0             	movslq %eax,%rdx
    132d:	48 8b 45 e0          	mov    -0x20(%rbp),%rax
    1331:	48 01 d0             	add    %rdx,%rax
    1334:	0f b6 00             	movzbl (%rax),%eax
    1337:	3c 5a                	cmp    $0x5a,%al
    1339:	7f 4b                	jg     1386 <victim_loop+0x24d>
    133b:	8b 45 f4             	mov    -0xc(%rbp),%eax
    133e:	48 63 d0             	movslq %eax,%rdx
    1341:	48 8b 45 e0          	mov    -0x20(%rbp),%rax
    1345:	48 01 d0             	add    %rdx,%rax
    1348:	0f b6 00             	movzbl (%rax),%eax
    134b:	0f be c0             	movsbl %al,%eax
    134e:	83 e8 3e             	sub    $0x3e,%eax
    1351:	48 63 d0             	movslq %eax,%rdx
    1354:	48 69 d2 4f ec c4 4e 	imul   $0x4ec4ec4f,%rdx,%rdx
    135b:	48 c1 ea 20          	shr    $0x20,%rdx
    135f:	c1 fa 03             	sar    $0x3,%edx
    1362:	89 c1                	mov    %eax,%ecx
    1364:	c1 f9 1f             	sar    $0x1f,%ecx
    1367:	29 ca                	sub    %ecx,%edx
    1369:	6b ca 1a             	imul   $0x1a,%edx,%ecx
    136c:	29 c8                	sub    %ecx,%eax
    136e:	89 c2                	mov    %eax,%edx
    1370:	89 d0                	mov    %edx,%eax
    1372:	8d 48 41             	lea    0x41(%rax),%ecx
    1375:	8b 45 f4             	mov    -0xc(%rbp),%eax
    1378:	48 63 d0             	movslq %eax,%rdx
    137b:	48 8b 45 e0          	mov    -0x20(%rbp),%rax
    137f:	48 01 d0             	add    %rdx,%rax
    1382:	89 ca                	mov    %ecx,%edx
    1384:	88 10                	mov    %dl,(%rax)
    1386:	83 45 f4 01          	addl   $0x1,-0xc(%rbp)
    138a:	8b 45 f4             	mov    -0xc(%rbp),%eax
    138d:	3b 45 dc             	cmp    -0x24(%rbp),%eax
    1390:	0f 8c 08 ff ff ff    	jl     129e <victim_loop+0x165>
    1396:	c7 45 f0 00 00 00 00 	movl   $0x0,-0x10(%rbp)
    139d:	e9 ec 00 00 00       	jmp    148e <victim_loop+0x355>
    13a2:	8b 45 f0             	mov    -0x10(%rbp),%eax
    13a5:	48 63 d0             	movslq %eax,%rdx
    13a8:	48 8b 45 e0          	mov    -0x20(%rbp),%rax
    13ac:	48 01 d0             	add    %rdx,%rax
    13af:	0f b6 00             	movzbl (%rax),%eax
    13b2:	3c 60                	cmp    $0x60,%al
    13b4:	7e 61                	jle    1417 <victim_loop+0x2de>
    13b6:	8b 45 f0             	mov    -0x10(%rbp),%eax
    13b9:	48 63 d0             	movslq %eax,%rdx
    13bc:	48 8b 45 e0          	mov    -0x20(%rbp),%rax
    13c0:	48 01 d0             	add    %rdx,%rax
    13c3:	0f b6 00             	movzbl (%rax),%eax
    13c6:	3c 7a                	cmp    $0x7a,%al
    13c8:	7f 4d                	jg     1417 <victim_loop+0x2de>
    13ca:	8b 45 f0             	mov    -0x10(%rbp),%eax
    13cd:	48 63 d0             	movslq %eax,%rdx
    13d0:	48 8b 45 e0          	mov    -0x20(%rbp),%rax
    13d4:	48 01 d0             	add    %rdx,%rax
    13d7:	0f b6 00             	movzbl (%rax),%eax
    13da:	0f be c0             	movsbl %al,%eax
    13dd:	83 e8 5e             	sub    $0x5e,%eax
    13e0:	48 63 d0             	movslq %eax,%rdx
    13e3:	48 69 d2 4f ec c4 4e 	imul   $0x4ec4ec4f,%rdx,%rdx
    13ea:	48 c1 ea 20          	shr    $0x20,%rdx
    13ee:	c1 fa 03             	sar    $0x3,%edx
    13f1:	89 c1                	mov    %eax,%ecx
    13f3:	c1 f9 1f             	sar    $0x1f,%ecx
    13f6:	29 ca                	sub    %ecx,%edx
    13f8:	6b ca 1a             	imul   $0x1a,%edx,%ecx
    13fb:	29 c8                	sub    %ecx,%eax
    13fd:	89 c2                	mov    %eax,%edx
    13ff:	89 d0                	mov    %edx,%eax
    1401:	8d 48 61             	lea    0x61(%rax),%ecx
    1404:	8b 45 f0             	mov    -0x10(%rbp),%eax
    1407:	48 63 d0             	movslq %eax,%rdx
    140a:	48 8b 45 e0          	mov    -0x20(%rbp),%rax
    140e:	48 01 d0             	add    %rdx,%rax
    1411:	89 ca                	mov    %ecx,%edx
    1413:	88 10                	mov    %dl,(%rax)
    1415:	eb 73                	jmp    148a <victim_loop+0x351>
    1417:	8b 45 f0             	mov    -0x10(%rbp),%eax
    141a:	48 63 d0             	movslq %eax,%rdx
    141d:	48 8b 45 e0          	mov    -0x20(%rbp),%rax
    1421:	48 01 d0             	add    %rdx,%rax
    1424:	0f b6 00             	movzbl (%rax),%eax
    1427:	3c 40                	cmp    $0x40,%al
    1429:	7e 5f                	jle    148a <victim_loop+0x351>
    142b:	8b 45 f0             	mov    -0x10(%rbp),%eax
    142e:	48 63 d0             	movslq %eax,%rdx
    1431:	48 8b 45 e0          	mov    -0x20(%rbp),%rax
    1435:	48 01 d0             	add    %rdx,%rax
    1438:	0f b6 00             	movzbl (%rax),%eax
    143b:	3c 5a                	cmp    $0x5a,%al
    143d:	7f 4b                	jg     148a <victim_loop+0x351>
    143f:	8b 45 f0             	mov    -0x10(%rbp),%eax
    1442:	48 63 d0             	movslq %eax,%rdx
    1445:	48 8b 45 e0          	mov    -0x20(%rbp),%rax
    1449:	48 01 d0             	add    %rdx,%rax
    144c:	0f b6 00             	movzbl (%rax),%eax
    144f:	0f be c0             	movsbl %al,%eax
    1452:	83 e8 3e             	sub    $0x3e,%eax
    1455:	48 63 d0             	movslq %eax,%rdx
    1458:	48 69 d2 4f ec c4 4e 	imul   $0x4ec4ec4f,%rdx,%rdx
    145f:	48 c1 ea 20          	shr    $0x20,%rdx
    1463:	c1 fa 03             	sar    $0x3,%edx
    1466:	89 c1                	mov    %eax,%ecx
    1468:	c1 f9 1f             	sar    $0x1f,%ecx
    146b:	29 ca                	sub    %ecx,%edx
    146d:	6b ca 1a             	imul   $0x1a,%edx,%ecx
    1470:	29 c8                	sub    %ecx,%eax
    1472:	89 c2                	mov    %eax,%edx
    1474:	89 d0                	mov    %edx,%eax
    1476:	8d 48 41             	lea    0x41(%rax),%ecx
    1479:	8b 45 f0             	mov    -0x10(%rbp),%eax
    147c:	48 63 d0             	movslq %eax,%rdx
    147f:	48 8b 45 e0          	mov    -0x20(%rbp),%rax
    1483:	48 01 d0             	add    %rdx,%rax
    1486:	89 ca                	mov    %ecx,%edx
    1488:	88 10                	mov    %dl,(%rax)
    148a:	83 45 f0 01          	addl   $0x1,-0x10(%rbp)
    148e:	8b 45 f0             	mov    -0x10(%rbp),%eax
    1491:	3b 45 dc             	cmp    -0x24(%rbp),%eax
    1494:	0f 8c 08 ff ff ff    	jl     13a2 <victim_loop+0x269>
    149a:	c7 45 ec 00 00 00 00 	movl   $0x0,-0x14(%rbp)
    14a1:	e9 ec 00 00 00       	jmp    1592 <victim_loop+0x459>
    14a6:	8b 45 ec             	mov    -0x14(%rbp),%eax
    14a9:	48 63 d0             	movslq %eax,%rdx
    14ac:	48 8b 45 e0          	mov    -0x20(%rbp),%rax
    14b0:	48 01 d0             	add    %rdx,%rax
    14b3:	0f b6 00             	movzbl (%rax),%eax
    14b6:	3c 60                	cmp    $0x60,%al
    14b8:	7e 61                	jle    151b <victim_loop+0x3e2>
    14ba:	8b 45 ec             	mov    -0x14(%rbp),%eax
    14bd:	48 63 d0             	movslq %eax,%rdx
    14c0:	48 8b 45 e0          	mov    -0x20(%rbp),%rax
    14c4:	48 01 d0             	add    %rdx,%rax
    14c7:	0f b6 00             	movzbl (%rax),%eax
    14ca:	3c 7a                	cmp    $0x7a,%al
    14cc:	7f 4d                	jg     151b <victim_loop+0x3e2>
    14ce:	8b 45 ec             	mov    -0x14(%rbp),%eax
    14d1:	48 63 d0             	movslq %eax,%rdx
    14d4:	48 8b 45 e0          	mov    -0x20(%rbp),%rax
    14d8:	48 01 d0             	add    %rdx,%rax
    14db:	0f b6 00             	movzbl (%rax),%eax
    14de:	0f be c0             	movsbl %al,%eax
    14e1:	83 e8 5e             	sub    $0x5e,%eax
    14e4:	48 63 d0             	movslq %eax,%rdx
    14e7:	48 69 d2 4f ec c4 4e 	imul   $0x4ec4ec4f,%rdx,%rdx
    14ee:	48 c1 ea 20          	shr    $0x20,%rdx
    14f2:	c1 fa 03             	sar    $0x3,%edx
    14f5:	89 c1                	mov    %eax,%ecx
    14f7:	c1 f9 1f             	sar    $0x1f,%ecx
    14fa:	29 ca                	sub    %ecx,%edx
    14fc:	6b ca 1a             	imul   $0x1a,%edx,%ecx
    14ff:	29 c8                	sub    %ecx,%eax
    1501:	89 c2                	mov    %eax,%edx
    1503:	89 d0                	mov    %edx,%eax
    1505:	8d 48 61             	lea    0x61(%rax),%ecx
    1508:	8b 45 ec             	mov    -0x14(%rbp),%eax
    150b:	48 63 d0             	movslq %eax,%rdx
    150e:	48 8b 45 e0          	mov    -0x20(%rbp),%rax
    1512:	48 01 d0             	add    %rdx,%rax
    1515:	89 ca                	mov    %ecx,%edx
    1517:	88 10                	mov    %dl,(%rax)
    1519:	eb 73                	jmp    158e <victim_loop+0x455>
    151b:	8b 45 ec             	mov    -0x14(%rbp),%eax
    151e:	48 63 d0             	movslq %eax,%rdx
    1521:	48 8b 45 e0          	mov    -0x20(%rbp),%rax
    1525:	48 01 d0             	add    %rdx,%rax
    1528:	0f b6 00             	movzbl (%rax),%eax
    152b:	3c 40                	cmp    $0x40,%al
    152d:	7e 5f                	jle    158e <victim_loop+0x455>
    152f:	8b 45 ec             	mov    -0x14(%rbp),%eax
    1532:	48 63 d0             	movslq %eax,%rdx
    1535:	48 8b 45 e0          	mov    -0x20(%rbp),%rax
    1539:	48 01 d0             	add    %rdx,%rax
    153c:	0f b6 00             	movzbl (%rax),%eax
    153f:	3c 5a                	cmp    $0x5a,%al
    1541:	7f 4b                	jg     158e <victim_loop+0x455>
    1543:	8b 45 ec             	mov    -0x14(%rbp),%eax
    1546:	48 63 d0             	movslq %eax,%rdx
    1549:	48 8b 45 e0          	mov    -0x20(%rbp),%rax
    154d:	48 01 d0             	add    %rdx,%rax
    1550:	0f b6 00             	movzbl (%rax),%eax
    1553:	0f be c0             	movsbl %al,%eax
    1556:	83 e8 3e             	sub    $0x3e,%eax
    1559:	48 63 d0             	movslq %eax,%rdx
    155c:	48 69 d2 4f ec c4 4e 	imul   $0x4ec4ec4f,%rdx,%rdx
    1563:	48 c1 ea 20          	shr    $0x20,%rdx
    1567:	c1 fa 03             	sar    $0x3,%edx
    156a:	89 c1                	mov    %eax,%ecx
    156c:	c1 f9 1f             	sar    $0x1f,%ecx
    156f:	29 ca                	sub    %ecx,%edx
    1571:	6b ca 1a             	imul   $0x1a,%edx,%ecx
    1574:	29 c8                	sub    %ecx,%eax
    1576:	89 c2                	mov    %eax,%edx
    1578:	89 d0                	mov    %edx,%eax
    157a:	8d 48 41             	lea    0x41(%rax),%ecx
    157d:	8b 45 ec             	mov    -0x14(%rbp),%eax
    1580:	48 63 d0             	movslq %eax,%rdx
    1583:	48 8b 45 e0          	mov    -0x20(%rbp),%rax
    1587:	48 01 d0             	add    %rdx,%rax
    158a:	89 ca                	mov    %ecx,%edx
    158c:	88 10                	mov    %dl,(%rax)
    158e:	83 45 ec 01          	addl   $0x1,-0x14(%rbp)
    1592:	8b 45 ec             	mov    -0x14(%rbp),%eax
    1595:	3b 45 dc             	cmp    -0x24(%rbp),%eax
    1598:	0f 8c 08 ff ff ff    	jl     14a6 <victim_loop+0x36d>
    159e:	90                   	nop
    159f:	90                   	nop
    15a0:	c9                   	leave
    15a1:	c3                   	ret

00000000000015a2 <victim_loop2>:
    15a2:	55                   	push   %rbp
    15a3:	48 89 e5             	mov    %rsp,%rbp
    15a6:	48 83 ec 30          	sub    $0x30,%rsp
    15aa:	48 8d 05 53 0a 00 00 	lea    0xa53(%rip),%rax        # 2004 <_IO_stdin_used+0x4>
    15b1:	48 89 45 e0          	mov    %rax,-0x20(%rbp)
    15b5:	c7 45 fc 00 00 00 00 	movl   $0x0,-0x4(%rbp)
    15bc:	eb 21                	jmp    15df <victim_loop2+0x3d>
    15be:	0f ae f0             	mfence
    15c1:	83 45 fc 02          	addl   $0x2,-0x4(%rbp)
    15c5:	d1 65 fc             	shll   -0x4(%rbp)
    15c8:	83 6d fc 04          	subl   $0x4,-0x4(%rbp)
    15cc:	8b 45 fc             	mov    -0x4(%rbp),%eax
    15cf:	89 c2                	mov    %eax,%edx
    15d1:	c1 ea 1f             	shr    $0x1f,%edx
    15d4:	01 d0                	add    %edx,%eax
    15d6:	d1 f8                	sar    %eax
    15d8:	89 45 fc             	mov    %eax,-0x4(%rbp)
    15db:	83 45 fc 01          	addl   $0x1,-0x4(%rbp)
    15df:	81 7d fc 3f 42 0f 00 	cmpl   $0xf423f,-0x4(%rbp)
    15e6:	7e d6                	jle    15be <victim_loop2+0x1c>
    15e8:	48 8b 45 e0          	mov    -0x20(%rbp),%rax
    15ec:	48 89 c7             	mov    %rax,%rdi
    15ef:	e8 3c fa ff ff       	call   1030 <strlen@plt>
    15f4:	89 45 dc             	mov    %eax,-0x24(%rbp)
    15f7:	c7 45 f8 00 00 00 00 	movl   $0x0,-0x8(%rbp)
    15fe:	e9 ec 00 00 00       	jmp    16ef <victim_loop2+0x14d>
    1603:	8b 45 f8             	mov    -0x8(%rbp),%eax
    1606:	48 63 d0             	movslq %eax,%rdx
    1609:	48 8b 45 e0          	mov    -0x20(%rbp),%rax
    160d:	48 01 d0             	add    %rdx,%rax
    1610:	0f b6 00             	movzbl (%rax),%eax
    1613:	3c 60                	cmp    $0x60,%al
    1615:	7e 61                	jle    1678 <victim_loop2+0xd6>
    1617:	8b 45 f8             	mov    -0x8(%rbp),%eax
    161a:	48 63 d0             	movslq %eax,%rdx
    161d:	48 8b 45 e0          	mov    -0x20(%rbp),%rax
    1621:	48 01 d0             	add    %rdx,%rax
    1624:	0f b6 00             	movzbl (%rax),%eax
    1627:	3c 7a                	cmp    $0x7a,%al
    1629:	7f 4d                	jg     1678 <victim_loop2+0xd6>
    162b:	8b 45 f8             	mov    -0x8(%rbp),%eax
    162e:	48 63 d0             	movslq %eax,%rdx
    1631:	48 8b 45 e0          	mov    -0x20(%rbp),%rax
    1635:	48 01 d0             	add    %rdx,%rax
    1638:	0f b6 00             	movzbl (%rax),%eax
    163b:	0f be c0             	movsbl %al,%eax
    163e:	83 e8 5e             	sub    $0x5e,%eax
    1641:	48 63 d0             	movslq %eax,%rdx
    1644:	48 69 d2 4f ec c4 4e 	imul   $0x4ec4ec4f,%rdx,%rdx
    164b:	48 c1 ea 20          	shr    $0x20,%rdx
    164f:	c1 fa 03             	sar    $0x3,%edx
    1652:	89 c1                	mov    %eax,%ecx
    1654:	c1 f9 1f             	sar    $0x1f,%ecx
    1657:	29 ca                	sub    %ecx,%edx
    1659:	6b ca 1a             	imul   $0x1a,%edx,%ecx
    165c:	29 c8                	sub    %ecx,%eax
    165e:	89 c2                	mov    %eax,%edx
    1660:	89 d0                	mov    %edx,%eax
    1662:	8d 48 61             	lea    0x61(%rax),%ecx
    1665:	8b 45 f8             	mov    -0x8(%rbp),%eax
    1668:	48 63 d0             	movslq %eax,%rdx
    166b:	48 8b 45 e0          	mov    -0x20(%rbp),%rax
    166f:	48 01 d0             	add    %rdx,%rax
    1672:	89 ca                	mov    %ecx,%edx
    1674:	88 10                	mov    %dl,(%rax)
    1676:	eb 73                	jmp    16eb <victim_loop2+0x149>
    1678:	8b 45 f8             	mov    -0x8(%rbp),%eax
    167b:	48 63 d0             	movslq %eax,%rdx
    167e:	48 8b 45 e0          	mov    -0x20(%rbp),%rax
    1682:	48 01 d0             	add    %rdx,%rax
    1685:	0f b6 00             	movzbl (%rax),%eax
    1688:	3c 40                	cmp    $0x40,%al
    168a:	7e 5f                	jle    16eb <victim_loop2+0x149>
    168c:	8b 45 f8             	mov    -0x8(%rbp),%eax
    168f:	48 63 d0             	movslq %eax,%rdx
    1692:	48 8b 45 e0          	mov    -0x20(%rbp),%rax
    1696:	48 01 d0             	add    %rdx,%rax
    1699:	0f b6 00             	movzbl (%rax),%eax
    169c:	3c 5a                	cmp    $0x5a,%al
    169e:	7f 4b                	jg     16eb <victim_loop2+0x149>
    16a0:	8b 45 f8             	mov    -0x8(%rbp),%eax
    16a3:	48 63 d0             	movslq %eax,%rdx
    16a6:	48 8b 45 e0          	mov    -0x20(%rbp),%rax
    16aa:	48 01 d0             	add    %rdx,%rax
    16ad:	0f b6 00             	movzbl (%rax),%eax
    16b0:	0f be c0             	movsbl %al,%eax
    16b3:	83 e8 3e             	sub    $0x3e,%eax
    16b6:	48 63 d0             	movslq %eax,%rdx
    16b9:	48 69 d2 4f ec c4 4e 	imul   $0x4ec4ec4f,%rdx,%rdx
    16c0:	48 c1 ea 20          	shr    $0x20,%rdx
    16c4:	c1 fa 03             	sar    $0x3,%edx
    16c7:	89 c1                	mov    %eax,%ecx
    16c9:	c1 f9 1f             	sar    $0x1f,%ecx
    16cc:	29 ca                	sub    %ecx,%edx
    16ce:	6b ca 1a             	imul   $0x1a,%edx,%ecx
    16d1:	29 c8                	sub    %ecx,%eax
    16d3:	89 c2                	mov    %eax,%edx
    16d5:	89 d0                	mov    %edx,%eax
    16d7:	8d 48 41             	lea    0x41(%rax),%ecx
    16da:	8b 45 f8             	mov    -0x8(%rbp),%eax
    16dd:	48 63 d0             	movslq %eax,%rdx
    16e0:	48 8b 45 e0          	mov    -0x20(%rbp),%rax
    16e4:	48 01 d0             	add    %rdx,%rax
    16e7:	89 ca                	mov    %ecx,%edx
    16e9:	88 10                	mov    %dl,(%rax)
    16eb:	83 45 f8 01          	addl   $0x1,-0x8(%rbp)
    16ef:	8b 45 f8             	mov    -0x8(%rbp),%eax
    16f2:	3b 45 dc             	cmp    -0x24(%rbp),%eax
    16f5:	0f 8c 08 ff ff ff    	jl     1603 <victim_loop2+0x61>
    16fb:	c7 45 f4 00 00 00 00 	movl   $0x0,-0xc(%rbp)
    1702:	e9 ec 00 00 00       	jmp    17f3 <victim_loop2+0x251>
    1707:	8b 45 f4             	mov    -0xc(%rbp),%eax
    170a:	48 63 d0             	movslq %eax,%rdx
    170d:	48 8b 45 e0          	mov    -0x20(%rbp),%rax
    1711:	48 01 d0             	add    %rdx,%rax
    1714:	0f b6 00             	movzbl (%rax),%eax
    1717:	3c 60                	cmp    $0x60,%al
    1719:	7e 61                	jle    177c <victim_loop2+0x1da>
    171b:	8b 45 f4             	mov    -0xc(%rbp),%eax
    171e:	48 63 d0             	movslq %eax,%rdx
    1721:	48 8b 45 e0          	mov    -0x20(%rbp),%rax
    1725:	48 01 d0             	add    %rdx,%rax
    1728:	0f b6 00             	movzbl (%rax),%eax
    172b:	3c 7a                	cmp    $0x7a,%al
    172d:	7f 4d                	jg     177c <victim_loop2+0x1da>
    172f:	8b 45 f4             	mov    -0xc(%rbp),%eax
    1732:	48 63 d0             	movslq %eax,%rdx
    1735:	48 8b 45 e0          	mov    -0x20(%rbp),%rax
    1739:	48 01 d0             	add    %rdx,%rax
    173c:	0f b6 00             	movzbl (%rax),%eax
    173f:	0f be c0             	movsbl %al,%eax
    1742:	83 e8 5e             	sub    $0x5e,%eax
    1745:	48 63 d0             	movslq %eax,%rdx
    1748:	48 69 d2 4f ec c4 4e 	imul   $0x4ec4ec4f,%rdx,%rdx
    174f:	48 c1 ea 20          	shr    $0x20,%rdx
    1753:	c1 fa 03             	sar    $0x3,%edx
    1756:	89 c1                	mov    %eax,%ecx
    1758:	c1 f9 1f             	sar    $0x1f,%ecx
    175b:	29 ca                	sub    %ecx,%edx
    175d:	6b ca 1a             	imul   $0x1a,%edx,%ecx
    1760:	29 c8                	sub    %ecx,%eax
    1762:	89 c2                	mov    %eax,%edx
    1764:	89 d0                	mov    %edx,%eax
    1766:	8d 48 61             	lea    0x61(%rax),%ecx
    1769:	8b 45 f4             	mov    -0xc(%rbp),%eax
    176c:	48 63 d0             	movslq %eax,%rdx
    176f:	48 8b 45 e0          	mov    -0x20(%rbp),%rax
    1773:	48 01 d0             	add    %rdx,%rax
    1776:	89 ca                	mov    %ecx,%edx
    1778:	88 10                	mov    %dl,(%rax)
    177a:	eb 73                	jmp    17ef <victim_loop2+0x24d>
    177c:	8b 45 f4             	mov    -0xc(%rbp),%eax
    177f:	48 63 d0             	movslq %eax,%rdx
    1782:	48 8b 45 e0          	mov    -0x20(%rbp),%rax
    1786:	48 01 d0             	add    %rdx,%rax
    1789:	0f b6 00             	movzbl (%rax),%eax
    178c:	3c 40                	cmp    $0x40,%al
    178e:	7e 5f                	jle    17ef <victim_loop2+0x24d>
    1790:	8b 45 f4             	mov    -0xc(%rbp),%eax
    1793:	48 63 d0             	movslq %eax,%rdx
    1796:	48 8b 45 e0          	mov    -0x20(%rbp),%rax
    179a:	48 01 d0             	add    %rdx,%rax
    179d:	0f b6 00             	movzbl (%rax),%eax
    17a0:	3c 5a                	cmp    $0x5a,%al
    17a2:	7f 4b                	jg     17ef <victim_loop2+0x24d>
    17a4:	8b 45 f4             	mov    -0xc(%rbp),%eax
    17a7:	48 63 d0             	movslq %eax,%rdx
    17aa:	48 8b 45 e0          	mov    -0x20(%rbp),%rax
    17ae:	48 01 d0             	add    %rdx,%rax
    17b1:	0f b6 00             	movzbl (%rax),%eax
    17b4:	0f be c0             	movsbl %al,%eax
    17b7:	83 e8 3e             	sub    $0x3e,%eax
    17ba:	48 63 d0             	movslq %eax,%rdx
    17bd:	48 69 d2 4f ec c4 4e 	imul   $0x4ec4ec4f,%rdx,%rdx
    17c4:	48 c1 ea 20          	shr    $0x20,%rdx
    17c8:	c1 fa 03             	sar    $0x3,%edx
    17cb:	89 c1                	mov    %eax,%ecx
    17cd:	c1 f9 1f             	sar    $0x1f,%ecx
    17d0:	29 ca                	sub    %ecx,%edx
    17d2:	6b ca 1a             	imul   $0x1a,%edx,%ecx
    17d5:	29 c8                	sub    %ecx,%eax
    17d7:	89 c2                	mov    %eax,%edx
    17d9:	89 d0                	mov    %edx,%eax
    17db:	8d 48 41             	lea    0x41(%rax),%ecx
    17de:	8b 45 f4             	mov    -0xc(%rbp),%eax
    17e1:	48 63 d0             	movslq %eax,%rdx
    17e4:	48 8b 45 e0          	mov    -0x20(%rbp),%rax
    17e8:	48 01 d0             	add    %rdx,%rax
    17eb:	89 ca                	mov    %ecx,%edx
    17ed:	88 10                	mov    %dl,(%rax)
    17ef:	83 45 f4 01          	addl   $0x1,-0xc(%rbp)
    17f3:	8b 45 f4             	mov    -0xc(%rbp),%eax
    17f6:	3b 45 dc             	cmp    -0x24(%rbp),%eax
    17f9:	0f 8c 08 ff ff ff    	jl     1707 <victim_loop2+0x165>
    17ff:	c7 45 f0 00 00 00 00 	movl   $0x0,-0x10(%rbp)
    1806:	e9 ec 00 00 00       	jmp    18f7 <victim_loop2+0x355>
    180b:	8b 45 f0             	mov    -0x10(%rbp),%eax
    180e:	48 63 d0             	movslq %eax,%rdx
    1811:	48 8b 45 e0          	mov    -0x20(%rbp),%rax
    1815:	48 01 d0             	add    %rdx,%rax
    1818:	0f b6 00             	movzbl (%rax),%eax
    181b:	3c 60                	cmp    $0x60,%al
    181d:	7e 61                	jle    1880 <victim_loop2+0x2de>
    181f:	8b 45 f0             	mov    -0x10(%rbp),%eax
    1822:	48 63 d0             	movslq %eax,%rdx
    1825:	48 8b 45 e0          	mov    -0x20(%rbp),%rax
    1829:	48 01 d0             	add    %rdx,%rax
    182c:	0f b6 00             	movzbl (%rax),%eax
    182f:	3c 7a                	cmp    $0x7a,%al
    1831:	7f 4d                	jg     1880 <victim_loop2+0x2de>
    1833:	8b 45 f0             	mov    -0x10(%rbp),%eax
    1836:	48 63 d0             	movslq %eax,%rdx
    1839:	48 8b 45 e0          	mov    -0x20(%rbp),%rax
    183d:	48 01 d0             	add    %rdx,%rax
    1840:	0f b6 00             	movzbl (%rax),%eax
    1843:	0f be c0             	movsbl %al,%eax
    1846:	83 e8 5e             	sub    $0x5e,%eax
    1849:	48 63 d0             	movslq %eax,%rdx
    184c:	48 69 d2 4f ec c4 4e 	imul   $0x4ec4ec4f,%rdx,%rdx
    1853:	48 c1 ea 20          	shr    $0x20,%rdx
    1857:	c1 fa 03             	sar    $0x3,%edx
    185a:	89 c1                	mov    %eax,%ecx
    185c:	c1 f9 1f             	sar    $0x1f,%ecx
    185f:	29 ca                	sub    %ecx,%edx
    1861:	6b ca 1a             	imul   $0x1a,%edx,%ecx
    1864:	29 c8                	sub    %ecx,%eax
    1866:	89 c2                	mov    %eax,%edx
    1868:	89 d0                	mov    %edx,%eax
    186a:	8d 48 61             	lea    0x61(%rax),%ecx
    186d:	8b 45 f0             	mov    -0x10(%rbp),%eax
    1870:	48 63 d0             	movslq %eax,%rdx
    1873:	48 8b 45 e0          	mov    -0x20(%rbp),%rax
    1877:	48 01 d0             	add    %rdx,%rax
    187a:	89 ca                	mov    %ecx,%edx
    187c:	88 10                	mov    %dl,(%rax)
    187e:	eb 73                	jmp    18f3 <victim_loop2+0x351>
    1880:	8b 45 f0             	mov    -0x10(%rbp),%eax
    1883:	48 63 d0             	movslq %eax,%rdx
    1886:	48 8b 45 e0          	mov    -0x20(%rbp),%rax
    188a:	48 01 d0             	add    %rdx,%rax
    188d:	0f b6 00             	movzbl (%rax),%eax
    1890:	3c 40                	cmp    $0x40,%al
    1892:	7e 5f                	jle    18f3 <victim_loop2+0x351>
    1894:	8b 45 f0             	mov    -0x10(%rbp),%eax
    1897:	48 63 d0             	movslq %eax,%rdx
    189a:	48 8b 45 e0          	mov    -0x20(%rbp),%rax
    189e:	48 01 d0             	add    %rdx,%rax
    18a1:	0f b6 00             	movzbl (%rax),%eax
    18a4:	3c 5a                	cmp    $0x5a,%al
    18a6:	7f 4b                	jg     18f3 <victim_loop2+0x351>
    18a8:	8b 45 f0             	mov    -0x10(%rbp),%eax
    18ab:	48 63 d0             	movslq %eax,%rdx
    18ae:	48 8b 45 e0          	mov    -0x20(%rbp),%rax
    18b2:	48 01 d0             	add    %rdx,%rax
    18b5:	0f b6 00             	movzbl (%rax),%eax
    18b8:	0f be c0             	movsbl %al,%eax
    18bb:	83 e8 3e             	sub    $0x3e,%eax
    18be:	48 63 d0             	movslq %eax,%rdx
    18c1:	48 69 d2 4f ec c4 4e 	imul   $0x4ec4ec4f,%rdx,%rdx
    18c8:	48 c1 ea 20          	shr    $0x20,%rdx
    18cc:	c1 fa 03             	sar    $0x3,%edx
    18cf:	89 c1                	mov    %eax,%ecx
    18d1:	c1 f9 1f             	sar    $0x1f,%ecx
    18d4:	29 ca                	sub    %ecx,%edx
    18d6:	6b ca 1a             	imul   $0x1a,%edx,%ecx
    18d9:	29 c8                	sub    %ecx,%eax
    18db:	89 c2                	mov    %eax,%edx
    18dd:	89 d0                	mov    %edx,%eax
    18df:	8d 48 41             	lea    0x41(%rax),%ecx
    18e2:	8b 45 f0             	mov    -0x10(%rbp),%eax
    18e5:	48 63 d0             	movslq %eax,%rdx
    18e8:	48 8b 45 e0          	mov    -0x20(%rbp),%rax
    18ec:	48 01 d0             	add    %rdx,%rax
    18ef:	89 ca                	mov    %ecx,%edx
    18f1:	88 10                	mov    %dl,(%rax)
    18f3:	83 45 f0 01          	addl   $0x1,-0x10(%rbp)
    18f7:	8b 45 f0             	mov    -0x10(%rbp),%eax
    18fa:	3b 45 dc             	cmp    -0x24(%rbp),%eax
    18fd:	0f 8c 08 ff ff ff    	jl     180b <victim_loop2+0x269>
    1903:	c7 45 ec 00 00 00 00 	movl   $0x0,-0x14(%rbp)
    190a:	e9 ec 00 00 00       	jmp    19fb <victim_loop2+0x459>
    190f:	8b 45 ec             	mov    -0x14(%rbp),%eax
    1912:	48 63 d0             	movslq %eax,%rdx
    1915:	48 8b 45 e0          	mov    -0x20(%rbp),%rax
    1919:	48 01 d0             	add    %rdx,%rax
    191c:	0f b6 00             	movzbl (%rax),%eax
    191f:	3c 60                	cmp    $0x60,%al
    1921:	7e 61                	jle    1984 <victim_loop2+0x3e2>
    1923:	8b 45 ec             	mov    -0x14(%rbp),%eax
    1926:	48 63 d0             	movslq %eax,%rdx
    1929:	48 8b 45 e0          	mov    -0x20(%rbp),%rax
    192d:	48 01 d0             	add    %rdx,%rax
    1930:	0f b6 00             	movzbl (%rax),%eax
    1933:	3c 7a                	cmp    $0x7a,%al
    1935:	7f 4d                	jg     1984 <victim_loop2+0x3e2>
    1937:	8b 45 ec             	mov    -0x14(%rbp),%eax
    193a:	48 63 d0             	movslq %eax,%rdx
    193d:	48 8b 45 e0          	mov    -0x20(%rbp),%rax
    1941:	48 01 d0             	add    %rdx,%rax
    1944:	0f b6 00             	movzbl (%rax),%eax
    1947:	0f be c0             	movsbl %al,%eax
    194a:	83 e8 5e             	sub    $0x5e,%eax
    194d:	48 63 d0             	movslq %eax,%rdx
    1950:	48 69 d2 4f ec c4 4e 	imul   $0x4ec4ec4f,%rdx,%rdx
    1957:	48 c1 ea 20          	shr    $0x20,%rdx
    195b:	c1 fa 03             	sar    $0x3,%edx
    195e:	89 c1                	mov    %eax,%ecx
    1960:	c1 f9 1f             	sar    $0x1f,%ecx
    1963:	29 ca                	sub    %ecx,%edx
    1965:	6b ca 1a             	imul   $0x1a,%edx,%ecx
    1968:	29 c8                	sub    %ecx,%eax
    196a:	89 c2                	mov    %eax,%edx
    196c:	89 d0                	mov    %edx,%eax
    196e:	8d 48 61             	lea    0x61(%rax),%ecx
    1971:	8b 45 ec             	mov    -0x14(%rbp),%eax
    1974:	48 63 d0             	movslq %eax,%rdx
    1977:	48 8b 45 e0          	mov    -0x20(%rbp),%rax
    197b:	48 01 d0             	add    %rdx,%rax
    197e:	89 ca                	mov    %ecx,%edx
    1980:	88 10                	mov    %dl,(%rax)
    1982:	eb 73                	jmp    19f7 <victim_loop2+0x455>
    1984:	8b 45 ec             	mov    -0x14(%rbp),%eax
    1987:	48 63 d0             	movslq %eax,%rdx
    198a:	48 8b 45 e0          	mov    -0x20(%rbp),%rax
    198e:	48 01 d0             	add    %rdx,%rax
    1991:	0f b6 00             	movzbl (%rax),%eax
    1994:	3c 40                	cmp    $0x40,%al
    1996:	7e 5f                	jle    19f7 <victim_loop2+0x455>
    1998:	8b 45 ec             	mov    -0x14(%rbp),%eax
    199b:	48 63 d0             	movslq %eax,%rdx
    199e:	48 8b 45 e0          	mov    -0x20(%rbp),%rax
    19a2:	48 01 d0             	add    %rdx,%rax
    19a5:	0f b6 00             	movzbl (%rax),%eax
    19a8:	3c 5a                	cmp    $0x5a,%al
    19aa:	7f 4b                	jg     19f7 <victim_loop2+0x455>
    19ac:	8b 45 ec             	mov    -0x14(%rbp),%eax
    19af:	48 63 d0             	movslq %eax,%rdx
    19b2:	48 8b 45 e0          	mov    -0x20(%rbp),%rax
    19b6:	48 01 d0             	add    %rdx,%rax
    19b9:	0f b6 00             	movzbl (%rax),%eax
    19bc:	0f be c0             	movsbl %al,%eax
    19bf:	83 e8 3e             	sub    $0x3e,%eax
    19c2:	48 63 d0             	movslq %eax,%rdx
    19c5:	48 69 d2 4f ec c4 4e 	imul   $0x4ec4ec4f,%rdx,%rdx
    19cc:	48 c1 ea 20          	shr    $0x20,%rdx
    19d0:	c1 fa 03             	sar    $0x3,%edx
    19d3:	89 c1                	mov    %eax,%ecx
    19d5:	c1 f9 1f             	sar    $0x1f,%ecx
    19d8:	29 ca                	sub    %ecx,%edx
    19da:	6b ca 1a             	imul   $0x1a,%edx,%ecx
    19dd:	29 c8                	sub    %ecx,%eax
    19df:	89 c2                	mov    %eax,%edx
    19e1:	89 d0                	mov    %edx,%eax
    19e3:	8d 48 41             	lea    0x41(%rax),%ecx
    19e6:	8b 45 ec             	mov    -0x14(%rbp),%eax
    19e9:	48 63 d0             	movslq %eax,%rdx
    19ec:	48 8b 45 e0          	mov    -0x20(%rbp),%rax
    19f0:	48 01 d0             	add    %rdx,%rax
    19f3:	89 ca                	mov    %ecx,%edx
    19f5:	88 10                	mov    %dl,(%rax)
    19f7:	83 45 ec 01          	addl   $0x1,-0x14(%rbp)
    19fb:	8b 45 ec             	mov    -0x14(%rbp),%eax
    19fe:	3b 45 dc             	cmp    -0x24(%rbp),%eax
    1a01:	0f 8c 08 ff ff ff    	jl     190f <victim_loop2+0x36d>
    1a07:	90                   	nop
    1a08:	90                   	nop
    1a09:	c9                   	leave
    1a0a:	c3                   	ret

0000000000001a0b <victim_call0>:
    1a0b:	55                   	push   %rbp
    1a0c:	48 89 e5             	mov    %rsp,%rbp
    1a0f:	b8 00 00 00 00       	mov    $0x0,%eax
    1a14:	e8 20 f7 ff ff       	call   1139 <victim_loop>
    1a19:	b8 00 00 00 00       	mov    $0x0,%eax
    1a1e:	e8 16 f7 ff ff       	call   1139 <victim_loop>
    1a23:	b8 00 00 00 00       	mov    $0x0,%eax
    1a28:	e8 0c f7 ff ff       	call   1139 <victim_loop>
    1a2d:	b8 00 00 00 00       	mov    $0x0,%eax
    1a32:	e8 02 f7 ff ff       	call   1139 <victim_loop>
    1a37:	90                   	nop
    1a38:	5d                   	pop    %rbp
    1a39:	c3                   	ret

0000000000001a3a <victim_call1>:
    1a3a:	55                   	push   %rbp
    1a3b:	48 89 e5             	mov    %rsp,%rbp
    1a3e:	b8 00 00 00 00       	mov    $0x0,%eax
    1a43:	e8 5a fb ff ff       	call   15a2 <victim_loop2>
    1a48:	b8 00 00 00 00       	mov    $0x0,%eax
    1a4d:	e8 50 fb ff ff       	call   15a2 <victim_loop2>
    1a52:	b8 00 00 00 00       	mov    $0x0,%eax
    1a57:	e8 46 fb ff ff       	call   15a2 <victim_loop2>
    1a5c:	b8 00 00 00 00       	mov    $0x0,%eax
    1a61:	e8 3c fb ff ff       	call   15a2 <victim_loop2>
    1a66:	90                   	nop
    1a67:	5d                   	pop    %rbp
    1a68:	c3                   	ret

0000000000001a69 <victim_call2>:
    1a69:	55                   	push   %rbp
    1a6a:	48 89 e5             	mov    %rsp,%rbp
    1a6d:	b8 00 00 00 00       	mov    $0x0,%eax
    1a72:	e8 c3 ff ff ff       	call   1a3a <victim_call1>
    1a77:	b8 00 00 00 00       	mov    $0x0,%eax
    1a7c:	e8 b9 ff ff ff       	call   1a3a <victim_call1>
    1a81:	b8 00 00 00 00       	mov    $0x0,%eax
    1a86:	e8 af ff ff ff       	call   1a3a <victim_call1>
    1a8b:	b8 00 00 00 00       	mov    $0x0,%eax
    1a90:	e8 a5 ff ff ff       	call   1a3a <victim_call1>
    1a95:	90                   	nop
    1a96:	5d                   	pop    %rbp
    1a97:	c3                   	ret

0000000000001a98 <victim_call3>:
    1a98:	55                   	push   %rbp
    1a99:	48 89 e5             	mov    %rsp,%rbp
    1a9c:	b8 00 00 00 00       	mov    $0x0,%eax
    1aa1:	e8 65 ff ff ff       	call   1a0b <victim_call0>
    1aa6:	b8 00 00 00 00       	mov    $0x0,%eax
    1aab:	e8 5b ff ff ff       	call   1a0b <victim_call0>
    1ab0:	b8 00 00 00 00       	mov    $0x0,%eax
    1ab5:	e8 51 ff ff ff       	call   1a0b <victim_call0>
    1aba:	b8 00 00 00 00       	mov    $0x0,%eax
    1abf:	e8 47 ff ff ff       	call   1a0b <victim_call0>
    1ac4:	90                   	nop
    1ac5:	5d                   	pop    %rbp
    1ac6:	c3                   	ret

0000000000001ac7 <main>:
    1ac7:	55                   	push   %rbp
    1ac8:	48 89 e5             	mov    %rsp,%rbp
    1acb:	b8 00 00 00 00       	mov    $0x0,%eax
    1ad0:	e8 94 ff ff ff       	call   1a69 <victim_call2>
    1ad5:	b8 00 00 00 00       	mov    $0x0,%eax
    1ada:	e8 8a ff ff ff       	call   1a69 <victim_call2>
    1adf:	b8 00 00 00 00       	mov    $0x0,%eax
    1ae4:	e8 80 ff ff ff       	call   1a69 <victim_call2>
    1ae9:	b8 00 00 00 00       	mov    $0x0,%eax
    1aee:	e8 76 ff ff ff       	call   1a69 <victim_call2>
    1af3:	b8 00 00 00 00       	mov    $0x0,%eax
    1af8:	5d                   	pop    %rbp
    1af9:	c3                   	ret

Disassembly of section .fini:

0000000000001afc <_fini>:
    1afc:	48 83 ec 08          	sub    $0x8,%rsp
    1b00:	48 83 c4 08          	add    $0x8,%rsp
    1b04:	c3                   	ret
